Microchip Technology Inc, vv3_31 (A) Å

Tool Name:
  c:\program files\microchip\mplabc30\v3.31\bin\bin\..\bin/pic30-coff-ld.exe

Command:
  -p24FJ256GB106 \
  -o.\Build\PIC24_256\CMRI.cof \
  -Lc:/program files/microchip/mplabc30/v3.31/bin/bin/.. \
  -Lc:/program files/microchip/mplabc30/v3.31/bin/bin/../../lib \
  -Lc:/program files/microchip/mplabc30/v3.31/bin/bin/../../lib/PIC24E \
  -Lc:/program files/microchip/mplabc30/v3.31/bin/bin/../../support/PIC24E/gld \
  -Lc:/program files/microchip/mplabc30/v3.31/bin/bin/../../lib/PIC24F \
  -Lc:/program files/microchip/mplabc30/v3.31/bin/bin/../../support/PIC24F/gld \
  -Lc:/program files/microchip/mplabc30/v3.31/bin/bin/../../lib/PIC24H \
  -Lc:/program files/microchip/mplabc30/v3.31/bin/bin/../../support/PIC24H/gld \
  -Lc:/program files/microchip/mplabc30/v3.31/bin/bin/../../lib/dsPIC30F \
  -Lc:/program files/microchip/mplabc30/v3.31/bin/bin/../../support/dsPIC30F/gld \
  -Lc:/program files/microchip/mplabc30/v3.31/bin/bin/../../lib/dsPIC33E \
  -Lc:/program files/microchip/mplabc30/v3.31/bin/bin/../../support/dsPIC33E/gld \
  -Lc:/program files/microchip/mplabc30/v3.31/bin/bin/../../lib/dsPIC33F \
  -Lc:/program files/microchip/mplabc30/v3.31/bin/bin/../../support/dsPIC33F/gld \
  Objects\PIC24_256\SE_CBKE.o \
  Objects\PIC24_256\rtcc.o \
  Objects\PIC24_256\sralloc.o \
  Objects\PIC24_256\Console.o \
  Objects\PIC24_256\HAL.o \
  Objects\PIC24_256\MSPI.o \
  Objects\PIC24_256\SE_Display.o \
  Objects\PIC24_256\SE_Profile.o \
  Objects\PIC24_256\SymbolTime.o \
  Objects\PIC24_256\zAIL.o \
  Objects\PIC24_256\zAPS.o \
  Objects\PIC24_256\ZigbeeTasks.o \
  Objects\PIC24_256\zMAC_MRF24J40.o \
  Objects\PIC24_256\zNVM.o \
  Objects\PIC24_256\zNWK.o \
  Objects\PIC24_256\zPHY_MRF24J40.o \
  Objects\PIC24_256\zSecurity_MRF24J40.o \
  Objects\PIC24_256\zStub_APS.o \
  Objects\PIC24_256\zZDO.o \
  Objects\PIC24_256\App_Common.o \
  Objects\PIC24_256\App_MTR.o \
  Objects\PIC24_256\SE_MTR.o \
  Objects\PIC24_256\merge_main.o \
  Objects\PIC24_256\Menu_MTR.o \
  Objects\PIC24_256\SE_Certificate_MTR.o \
  Objects\PIC24_256\myZigBee_ESP.o \
  Objects\PIC24_256\App_ESP.o \
  Objects\PIC24_256\Menu_ESP.o \
  Objects\PIC24_256\SE_ESP.o \
  Objects\PIC24_256\myZigBee_MTR.o \
  Objects\PIC24_256\SE_Certificate_ESP.o \
  Objects\PIC24_256\msdlclusterhanddle.o \
  Objects\PIC24_256\monitor.o \
  Objects\PIC24_256\comm.o \
  Objects\PIC24_256\Delay.o \
  Objects\PIC24_256\Log.o \
  E:\Dropbox\MyWork\SEPV1.1\Source\CMRI\SEP Progressive merge MTR Merge\Source\Common\Lib\TLS2130.a \
  E:\Dropbox\MyWork\SEPV1.1\Source\CMRI\SEP Progressive merge MTR Merge\Source\Common\Lib\ZCL24bitLib.a \
  E:\Dropbox\MyWork\SEPV1.1\Source\CMRI\SEP Progressive merge MTR Merge\Source\Common\Lib\lib24ecc.a \
  -LC:\Program Files\Microchip\MPLAB C30\lib \
  -Tp24FJ256GB106.gld.00 \
  --defsym=__MPLAB_BUILD=1 \
  --heap=3916 \
  --stack=2048 \
  -Map=.\Build\PIC24_256\CMRI.map \
  --report-mem \
  -start-group \
  --library=pic30-coff \
  --library=m-coff \
  --library=c-coff \
  -end-group \

Archive member included because of file (symbol)

E:\Dropbox\MyWork\SEPV1.1\Source\CMRI\SEP Progressive merge MTR Merge\Source\Common\Lib\TLS2130.a(lcd.o)
                              Objects\PIC24_256\SE_Display.o (lcdPutChar)
E:\Dropbox\MyWork\SEPV1.1\Source\CMRI\SEP Progressive merge MTR Merge\Source\Common\Lib\TLS2130.a(delay.o)
                              E:\Dropbox\MyWork\SEPV1.1\Source\CMRI\SEP Progressive merge MTR Merge\Source\Common\Lib\TLS2130.a(lcd.o) (Delay)
E:\Dropbox\MyWork\SEPV1.1\Source\CMRI\SEP Progressive merge MTR Merge\Source\Common\Lib\ZCL24bitLib.a(ZCL_Utility.o)
                              Objects\PIC24_256\SE_Profile.o (ZCL_Utility_Time_ConvertYearToSeconds)
E:\Dropbox\MyWork\SEPV1.1\Source\CMRI\SEP Progressive merge MTR Merge\Source\Common\Lib\ZCL24bitLib.a(ZCL_Foundation.o)
                              Objects\PIC24_256\SE_Profile.o (ZCL_GetDataLengthForAttributeDataType)
E:\Dropbox\MyWork\SEPV1.1\Source\CMRI\SEP Progressive merge MTR Merge\Source\Common\Lib\ZCL24bitLib.a(ZCL_Time.o)
                              Objects\PIC24_256\SE_Profile.o (ZCL_Time_SetTimeAttribute)
E:\Dropbox\MyWork\SEPV1.1\Source\CMRI\SEP Progressive merge MTR Merge\Source\Common\Lib\ZCL24bitLib.a(ZCL_Groups.o)
                              Objects\PIC24_256\SE_Profile.o (zcl_GroupsClusterServerInfo)
E:\Dropbox\MyWork\SEPV1.1\Source\CMRI\SEP Progressive merge MTR Merge\Source\Common\Lib\ZCL24bitLib.a(ZCL_Scenes.o)
                              Objects\PIC24_256\SE_Profile.o (zcl_ScenesClusterServerInfo)
E:\Dropbox\MyWork\SEPV1.1\Source\CMRI\SEP Progressive merge MTR Merge\Source\Common\Lib\ZCL24bitLib.a(ZCL_Identify.o)
                              Objects\PIC24_256\SE_MTR.o (zcl_IdentifyClusterServerDefinition)
E:\Dropbox\MyWork\SEPV1.1\Source\CMRI\SEP Progressive merge MTR Merge\Source\Common\Lib\ZCL24bitLib.a(ZCL_Basic.o)
                              Objects\PIC24_256\SE_MTR.o (zcl_BasicClusterServerDefinition)
E:\Dropbox\MyWork\SEPV1.1\Source\CMRI\SEP Progressive merge MTR Merge\Source\Common\Lib\ZCL24bitLib.a(ZCL_Commissioning.o)
                              Objects\PIC24_256\SE_MTR.o (zcl_CommissioningClusterServerDefinition)
E:\Dropbox\MyWork\SEPV1.1\Source\CMRI\SEP Progressive merge MTR Merge\Source\Common\Lib\ZCL24bitLib.a(ZCL_Power_Configuration.o)
                              Objects\PIC24_256\SE_MTR.o (zcl_PowerConfigurationClusterServerInfo)
E:\Dropbox\MyWork\SEPV1.1\Source\CMRI\SEP Progressive merge MTR Merge\Source\Common\Lib\ZCL24bitLib.a(ZCL_Alarm.o)
                              Objects\PIC24_256\SE_MTR.o (zcl_AlarmClusterServerDefinition)
E:\Dropbox\MyWork\SEPV1.1\Source\CMRI\SEP Progressive merge MTR Merge\Source\Common\Lib\ZCL24bitLib.a(ZCL_Metering.o)
                              Objects\PIC24_256\SE_MTR.o (zcl_MeteringClusterServerInfo)
E:\Dropbox\MyWork\SEPV1.1\Source\CMRI\SEP Progressive merge MTR Merge\Source\Common\Lib\ZCL24bitLib.a(ZCL_Price.o)
                              Objects\PIC24_256\SE_MTR.o (ZCL_HandlePriceClusterCommand)
E:\Dropbox\MyWork\SEPV1.1\Source\CMRI\SEP Progressive merge MTR Merge\Source\Common\Lib\ZCL24bitLib.a(ZCL_Message.o)
                              Objects\PIC24_256\SE_ESP.o (ZCL_HandleMessageClusterCommand)
E:\Dropbox\MyWork\SEPV1.1\Source\CMRI\SEP Progressive merge MTR Merge\Source\Common\Lib\ZCL24bitLib.a(ZCL_DRLC.o)
                              Objects\PIC24_256\SE_ESP.o (ZCL_DRLC_CreateLoadControlEventCmd)
c:/program files/microchip/mplabc30/v3.31/bin/bin/../../lib\libpic30-coff.a(crt0_standard.o)
                              (_resetPRI)
c:/program files/microchip/mplabc30/v3.31/bin/bin/../../lib\libpic30-coff.a(data_init_standard.o)
                              c:/program files/microchip/mplabc30/v3.31/bin/bin/../../lib\libpic30-coff.a(crt0_standard.o) (_data_init_standard)
c:/program files/microchip/mplabc30/v3.31/bin/bin/../../lib\libm-coff.a(umodsi3.o)
                              Objects\PIC24_256\Console.o (__umodsi3)
c:/program files/microchip/mplabc30/v3.31/bin/bin/../../lib\libm-coff.a(udivsi3.o)
                              Objects\PIC24_256\Console.o (__udivsi3)
c:/program files/microchip/mplabc30/v3.31/bin/bin/../../lib\libm-coff.a(muldi3.o)
                              Objects\PIC24_256\SE_Profile.o (__muldi3)
c:/program files/microchip/mplabc30/v3.31/bin/bin/../../lib\libm-coff.a(divmoddi3.o)
                              Objects\PIC24_256\SE_Profile.o (__udivdi3)
c:/program files/microchip/mplabc30/v3.31/bin/bin/../../lib\libm-coff.a(floatsisf.o)
                              Objects\PIC24_256\zAPS.o (__floatsisf)
c:/program files/microchip/mplabc30/v3.31/bin/bin/../../lib\libm-coff.a(addsf3.o)
                              Objects\PIC24_256\zAPS.o (__addsf3)
c:/program files/microchip/mplabc30/v3.31/bin/bin/../../lib\libm-coff.a(fgtge.o)
                              Objects\PIC24_256\zAPS.o (__gtsf2)
c:/program files/microchip/mplabc30/v3.31/bin/bin/../../lib\libm-coff.a(mulsf3.o)
                              Objects\PIC24_256\zAPS.o (__mulsf3)
c:/program files/microchip/mplabc30/v3.31/bin/bin/../../lib\libm-coff.a(fixunssfsi.o)
                              Objects\PIC24_256\zAPS.o (__fixunssfsi)
c:/program files/microchip/mplabc30/v3.31/bin/bin/../../lib\libm-coff.a(umuldi3.o)
                              c:/program files/microchip/mplabc30/v3.31/bin/bin/../../lib\libm-coff.a(muldi3.o) (__umuldi3)
c:/program files/microchip/mplabc30/v3.31/bin/bin/../../lib\libm-coff.a(fpack.o)
                              c:/program files/microchip/mplabc30/v3.31/bin/bin/../../lib\libm-coff.a(floatsisf.o) (_fpack)
c:/program files/microchip/mplabc30/v3.31/bin/bin/../../lib\libm-coff.a(funpack2.o)
                              c:/program files/microchip/mplabc30/v3.31/bin/bin/../../lib\libm-coff.a(addsf3.o) (_funpack2)
c:/program files/microchip/mplabc30/v3.31/bin/bin/../../lib\libm-coff.a(futil.o)
                              c:/program files/microchip/mplabc30/v3.31/bin/bin/../../lib\libm-coff.a(addsf3.o) (_fPropagateNaN)
c:/program files/microchip/mplabc30/v3.31/bin/bin/../../lib\libm-coff.a(fcompare.o)
                              c:/program files/microchip/mplabc30/v3.31/bin/bin/../../lib\libm-coff.a(fgtge.o) (_fcompare)
c:/program files/microchip/mplabc30/v3.31/bin/bin/../../lib\libm-coff.a(funpack.o)
                              c:/program files/microchip/mplabc30/v3.31/bin/bin/../../lib\libm-coff.a(fixunssfsi.o) (_funpack)
c:/program files/microchip/mplabc30/v3.31/bin/bin/../../lib\libc-coff.a(malloc.XXo)
                              Objects\PIC24_256\sralloc.o (malloc)
c:/program files/microchip/mplabc30/v3.31/bin/bin/../../lib\libc-coff.a(memset.XXo)
                              Objects\PIC24_256\SE_Profile.o (memset)
c:/program files/microchip/mplabc30/v3.31/bin/bin/../../lib\libc-coff.a(memcmp.XXo)
                              Objects\PIC24_256\SE_Profile.o (memcmp)
c:/program files/microchip/mplabc30/v3.31/bin/bin/../../lib\libc-coff.a(memcpy.XXo)
                              Objects\PIC24_256\SE_Profile.o (memcpy)
c:/program files/microchip/mplabc30/v3.31/bin/bin/../../lib\libc-coff.a(sprintf_cdnopuxX.XXo)
                              Objects\PIC24_256\zMAC_MRF24J40.o (_sprintf_cdnopuxX)
c:/program files/microchip/mplabc30/v3.31/bin/bin/../../lib\libc-coff.a(doprnt_cdnopuxX.XXo)
                              c:/program files/microchip/mplabc30/v3.31/bin/bin/../../lib\libc-coff.a(sprintf_cdnopuxX.XXo) (_vfprintf_cdnopuxX)
c:/program files/microchip/mplabc30/v3.31/bin/bin/../../lib\libc-coff.a(fputc.XXo)
                              c:/program files/microchip/mplabc30/v3.31/bin/bin/../../lib\libc-coff.a(doprnt_cdnopuxX.XXo) (fputc)
c:/program files/microchip/mplabc30/v3.31/bin/bin/../../lib\libc-coff.a(_iob.XXo)
                              c:/program files/microchip/mplabc30/v3.31/bin/bin/../../lib\libc-coff.a(fputc.XXo) (_outdone)
c:/program files/microchip/mplabc30/v3.31/bin/bin/../../lib\libc-coff.a(flsbuf.XXo)
                              c:/program files/microchip/mplabc30/v3.31/bin/bin/../../lib\libc-coff.a(fputc.XXo) (_flsbuf)
c:/program files/microchip/mplabc30/v3.31/bin/bin/../../lib\libpic30-coff.a(sbrk.o)
                              c:/program files/microchip/mplabc30/v3.31/bin/bin/../../lib\libc-coff.a(malloc.XXo) (sbrk)
c:/program files/microchip/mplabc30/v3.31/bin/bin/../../lib\libpic30-coff.a(write.o)
                              c:/program files/microchip/mplabc30/v3.31/bin/bin/../../lib\libc-coff.a(fputc.XXo) (write)
c:/program files/microchip/mplabc30/v3.31/bin/bin/../../lib\libpic30-coff.a(brk.o)
                              c:/program files/microchip/mplabc30/v3.31/bin/bin/../../lib\libpic30-coff.a(sbrk.o) (brk)
c:/program files/microchip/mplabc30/v3.31/bin/bin/../../lib\libpic30-coff.a(c30_uart.o)
                              c:/program files/microchip/mplabc30/v3.31/bin/bin/../../lib\libpic30-coff.a(write.o) (__C30_UART)


Program Memory  [Origin = 0x200, Length = 0x2a9f6]

section                    address   length (PC units)   length (bytes) (dec)
-------                    -------   -----------------   --------------------
.text                        0x200               0xf82          0x1743  (5955)
.const                      0x1182              0x598c          0x8652  (34386)
.text                       0x6b0e             0x1c406         0x2a609  (173577)
.dinit                     0x22f14               0x6be           0xa1d  (2589)
.text                      0x235d2              0x4058          0x6084  (24708)

                     Total program memory used (bytes):        0x3ae3f  (241215) 92%


Data Memory  [Origin = 0x800, Length = 0x4000]

section                    address      alignment gaps    total length  (dec)
-------                    -------      --------------    -------------------
.nbss                        0x800                   0             0x8  (8)
.bss                         0x808                   0           0xcb8  (3256)
.data                       0x14c0                   0           0x42a  (1066)
.bss                        0x18ea                   0           0xeb2  (3762)
.data                       0x279c                   0           0x154  (340)
.bss                        0x28f0                   0           0x28e  (654)
.data                       0x2b7e                   0            0xd2  (210)
.bss                        0x2c50                   0            0xc6  (198)
.data                       0x2d16                   0           0x144  (324)
.bss                        0x2e5a                   0           0x12a  (298)
.dconst                     0x2f84                   0            0x2a  (42)
.data                       0x2fae                   0            0x26  (38)
.bss                        0x2fd4                   0            0x48  (72)
.data                       0x301c                   0            0x12  (18)
.bss                        0x302e                   0            0x10  (16)
.data                       0x303e                   0             0xc  (12)
.bss                        0x304a                   0             0xa  (10)
.data                       0x3054                   0            0x2e  (46)
.bss                        0x3082                   0             0x6  (6)
.data                       0x3088                   0             0x4  (4)
.bss                        0x308c                   0             0x8  (8)
.data                       0x3094                   0             0x6  (6)
.bss                        0x309a                   0             0x2  (2)
.data                       0x309c                   0             0x4  (4)
.bss                        0x30a0                   0             0x2  (2)
.data                       0x30a2                   0             0x2  (2)
.heap                       0x30a4                   0           0xf4c  (3916)

                        Total data memory used (bytes):         0x37f0  (14320) 87%


Dynamic Memory Usage

region                     address                      maximum length  (dec)
------                     -------                      ---------------------
heap                        0x30a4                               0xf4c  (3916)
stack                       0x3ff0                               0x810  (2064)

                        Maximum dynamic memory (bytes):         0x175c  (5980)


External Symbols in Data Memory (by address):

                    0x0806                  _temp_count
                    0x080c                  _mainsVoltageDwellTripPointValue
                    0x080e                  _CommRestartTime
                    0x0812                  _RestartDeviceCmdPayload
                    0x0816                  _ReportingBgTasks
                    0x082c                  _displayQuotient
                    0x0830                  _remainderArray
                    0x083a                  _attributeDataStorageInRAM_ESP
                    0x09c3                  _attributeDataStorageInRAM_MTR
                    0x0b44                  _InitiatorDeviceInfo
                    0x0b50                  _AppGroupsNameTable
                    0x0bd0                  _App_ScenesTable
                    0x0ea0                  _MACAddMeter
                    0x103a                  _MyCommandFlag
                    0x103c                  _EndDeviceAnounceTable
                    0x123c                  _PerMissionEndDeviceAnounceTable
                    0x143c                  _ExtPANIDStatus
                    0x1440                  _UrSeqNumner
                    0x1442                  _UrCommand
                    0x1444                  _Urlen
                    0x1446                  _UrRW
                    0x1448                  _Urp_dataInd
                    0x144a                  _ListOfExtendedPANIdinVicinity
                    0x14a4                  _RestartDeviceAfterCommission
                    0x14a7                  _Uart2Datalen
                    0x14a8                  _TimeOutStartTime
                    0x14ac                  _ACKTimeOut
                    0x14b0                  _TotalMeterGetConnceted1
                    0x14b4                  _TotalMeterGetConnceted2
                    0x14b8                  _PrvSendIeeeAddr
                    0x14c0                  _pESPClusterServerDefinition
                    0x14d6                  _pESPClusterClientDefinition
                    0x14e8                  _ESP_DeviceServerinfo
                    0x14ec                  _pAppListOfDeviceServerInfo_ESP
                    0x14ee                  _ESP_DeviceClientinfo
                    0x14f2                  _pAppListOfDeviceClientInfo_ESP
                    0x14f4                  _App_AttributeStorageTable_ESP
                    0x154e                  _PublishPriceCommandPayloadDefaultValue
                    0x1582                  _PublishPriceRequestFrameValue
                    0x159a                  _ListOfPriceEvents
                    0x1666                  _ZCL_Message_DisplayMessageTable
                    0x173a                  _displayMessagesTable
                    0x1816                  _mirrorStatus
                    0x1819                  _LoadControlEventCommandPayloadDefaultValue
                    0x185e                  _LCEReqFrameVal
                    0x1866                  _MeteringIntervalsTable
                    0x1884                  _NoOfEntriesInAttrStorageTable_ESP
                    0x1886                  _meterAttributes_DisplayStateTable
                    0x18ea                  _fragmentData
                    0x1cea                  _StartTime_GetNode
                    0x1cee                  _currentPrimitive_ESP
                    0x1cf0                  _nwkDesExtendedPANID
                    0x1cfe                  _ParentAddress
                    0x1d00                  _RouteRecordTable
                    0x1df0                  _RoLoAddr
                    0x1df8                  _ASSOCIATE_indication_Time
                    0x1dfc                  _rejoinIndication
                    0x1e14                  _rejoinIndicationPending
                    0x1e15                  _msduHandle
                    0x1e16                  _nwkConfirmationHandles
                    0x1eb6                  _NIB
                    0x1eb7                  _nwkSecurityLevel
                    0x1eb8                  _EdRecords
                    0x1eca                  _TotalTransmittedPackets
                    0x1ecc                  _TotalTransmitFailures
                    0x1ece                  _InterferenceDetected
                    0x1ed0                  _messageToForward
                    0x1ed2                  _nwkStatus
                    0x1f5c                  _panIDConflictStatus
                    0x1f5d                  _routeDstInfo
                    0x1f6c                  _routeDiscoveryTablePointer
                    0x1f74                  _rejoin_network
                    0x1f76                  _DataToBeSendAfterRouteRecord
                    0x1f7e                  _addressConflictOnChildEndDevice
                    0x1f80                  _rejoinWithSec
                    0x1f82                  _timeBetweenScanDuringRejoin
                    0x1f86                  _frame_counter
                    0x1f8e                  _rejoinShortAddress
                    0x1f90                  _CurrentRxPacket
                    0x1f92                  _params
                    0x1fbe                  _TxBuffer
                    0x20be                  _TxData
                    0x20bf                  _TxHeader
                    0x20c0                  _ZigBeeStatus
                    0x20c4                  _RxBuffer
                    0x21c4                  _appNotify
                    0x21c9                  _RxWrite
                    0x21ca                  _RxRead
                    0x21cc                  _AuthorizationTimeout
                    0x21d0                  _WaitForAuthentication
                    0x21d4                  _TCLinkKeyInfo
                    0x21f2                  _APSCounter
                    0x21f4                  _currentAppLinkKeyTable
                    0x2212                  _apsChannelMask
                    0x2216                  _apsStatus
                    0x2254                  _apsConfirmationHandles
                    0x2280                  _apsFragmentationInfo
                    0x22bc                  _apsDuplicateTable
                    0x23bc                  _KeyVal
                    0x23cc                  _lastPollTime
                    0x23d0                  _transportKeySrcAddr
                    0x23d8                  _fragmentWindowSize
                    0x23d9                  _fragmentInterframeDelay
                    0x23da                  _fragmentDataSize
                    0x23dc                  _fragmentTotalDataLength
                    0x23de                  _currentGroupAddressRecord
                    0x23e8                  _previousKeyNotSeq0
                    0x23ea                  _updateDevAPSAddr
                    0x23f4                  _currentAPSAddress1
                    0x2400                  _OutgoingFrameCount
                    0x2408                  _IncomingFrameCount
                    0x2598                  _securityStatus
                    0x259a                  _plainSecurityKey
                    0x25be                  _key
                    0x25ce                  _buffer
                    0x25de                  _macLongAddrEE
                    0x25e0                  _macLongAddrValidityKey
                    0x25e2                  _currentBindingRecord
                    0x25ea                  _apsBindingTable
                    0x25ec                  _bindingTableUsageMap
                    0x25ee                  _bindingTableSourceNodeMap
                    0x25f0                  _bindingValidityKey
                    0x25f2                  _pCurrentBindingRecord
                    0x25f4                  _apsGroupAddressTable
                    0x25f6                  _pCurrentGroupAddressRecord
                    0x25f8                  _currentNeighborRecord
                    0x2616                  _currentNeighborTableInfo
                    0x262a                  _RAMNeighborTable
                    0x26f2                  _neighborTable
                    0x26f4                  _neighborTableInfo
                    0x26f6                  _pCurrentNeighborRecord
                    0x26f8                  _currentRoutingEntry
                    0x26fe                  _routingTable
                    0x2700                  _pCurrentRoutingEntry
                    0x2702                  _currentAPSAddress
                    0x270c                  _apsAddressMapValidityKey
                    0x270e                  _apsAddressMap
                    0x2710                  _currentNetworkKeyInfo
                    0x2722                  _nwkActiveKeyNumber
                    0x2724                  _networkKeyInfo
                    0x2726                  _outgoingFrameCounterIndex
                    0x2728                  _appLinkKeyTable
                    0x272a                  _TCLinkKeyTable
                    0x272c                  _nodeDescriptorValidityKey
                    0x272e                  _configNodeDescriptor
                    0x2730                  _configPowerDescriptor
                    0x2732                  _configSimpleDescriptors
                    0x2734                  _persistencePIB
                    0x2736                  _current_SAS
                    0x2796                  _default_SAS
                    0x2798                  _Commissioned_SAS
                    0x279a                  _activeSASIndex
                    0x279c                  _meterStatus
                    0x27a2                  _commissioningRestartInProgress
                    0x27a3                  _CommRestartTimerInProgress
                    0x27a4                  _clusterSecurityTable
                    0x27d8                  _alarmConditionTableEntries
                    0x27f9                  _AlarmEntries
                    0x2811                  _MainsVoltageDwellTripPointHandled
                    0x2812                  _appIdentifyTimers
                    0x2818                  _appPowerConfigMainsDwellTrip
                    0x281e                  _reportConfigurationTable
                    0x28e2                  _scenesRecallCmdRecord
                    0x28ec                  _sceneValidInfo
                    0x28fa                  _leavingChildDetails
                    0x2904                  _sendrequestSource
                    0x2906                  _SendIee
                    0x290e                  _pBindInProgressInfo
                    0x2910                  _sequenceNumber
                    0x2912                  _zdoStatus
                    0x292a                  _ZDOCounter
                    0x292b                  _dAddr
                    0x292e                  _simpleDescriptor
                    0x2974                  _NwkJoinTries
                    0x2976                  _NetworkDescriptor
                    0x2978                  _currentNetworkDescriptor
                    0x297a                  _NwkDiscoveryTries
                    0x297c                  _NetworkDesc
                    0x29c2                  _syncLoss
                    0x29c4                  _mgmtNwkUpateRequestDetails
                    0x29cc                  _joinReqType
                    0x29cd                  _startMode
                    0x29ce                  _appNotification
                    0x29d0                  _matchCluster1
                    0x29d2                  _matchCluster2
                    0x2aaa                  _inputBuf_MTR
                    0x2b74                  _MeteringGetProfileResponse
                    0x2b7e                  _pMeterClusterServerDefinition
                    0x2b8e                  _pMeterClusterClientDefinition
                    0x2ba2                  _Meter_DeviceServerinfo
                    0x2ba6                  _pAppListOfDeviceServerInfo_MTR
                    0x2ba8                  _Meter_DeviceClientinfo
                    0x2bac                  _pAppListOfDeviceClientInfo_MTR
                    0x2bae                  _App_AttributeStorageTable_MTR
                    0x2bfe                  _NoOfEntriesInAttrStorageTable
                    0x2c00                  _testMeterProfiles
                    0x2c50                  _macPIB
                    0x2c76                  _associationReqParams
                    0x2c7a                  _currentPacket
                    0x2c8c                  _macIndirectBuffers
                    0x2cf0                  _macStatus
                    0x2cf1                  _macTasksPending
                    0x2cf2                  _scanParams
                    0x2d0e                  _tempLongAddress
                    0x2d16                  _AckReceived
                    0x2d17                  _NetworkStatusCommandResponse
                    0x2d1e                  _StartNetworkFlag
                    0x2d1f                  _waitingForDeta
                    0x2d20                  _Uart2Buffer
                    0x2dac                  _HowManyData
                    0x2dae                  _NumberofSeperator
                    0x2db0                  _NumberofReceived
                    0x2db2                  _numberofdatareceived
                    0x2db3                  _ScanCommandSend
                    0x2db4                  _TimeExitDelayForReset
                    0x2db6                  _ScanResponceReceived
                    0x2db7                  _AllScanCommandComplet
                    0x2db8                  _TotalScanCommandSend
                    0x2e5c                  _inputBuf_ESP
                    0x2e76                  _menuLevel1
                    0x2e77                  _menuLevel2
                    0x2e78                  _menuLevel3
                    0x2e79                  _asduData
                    0x2ec9                  _extensionFieldIndex
                    0x2eca                  _NumberOfExtensionFields
                    0x2ecb                  _attribute_count
                    0x2ece                  _numberOfPriceEvents
                    0x2ecf                  _numberofTiersSupported
                    0x2ed0                  _espStatus
                    0x2ede                  _PublishPriceInfo
                    0x2f12                  _meterFormatAttributes
                    0x2f20                  _MAX_ENERGY_THRESHOLD
                    0x2f22                  _appNextSeqNum_PTR
                    0x2f24                  _ALLOWED_CHANNELS
                    0x2f28                  _App_AttributeStorageTable
                    0x2f2a                  _MSDCL_Commission
                    0x2f4a                  _pAppListOfDeviceServerInfo
                    0x2f4e                  _pAppListOfDeviceClientInfo
                    0x2f52                  _Config_Simple_Descriptors
                    0x2f54                  _ChannelsToBeScanned
                    0x2f58                  _AILTransmitQueue
                    0x2f6c                  _AILReceiveQueue
                    0x2f80                  _AILTransmitQueueHeadIndex
                    0x2f81                  _AILTransmitQueueTailIndex
                    0x2f82                  _AILReceiveQueueHeadIndex
                    0x2f83                  _AILReceiveQueueTailIndex
                    0x2fae                  __Files
                    0x2fb0                  __iob
                    0x2fd6                  _interPANDataRequest
                    0x2fea                  _currentPrimitive_MTR
                    0x2fec                  _meterReadingValue
                    0x2ff6                  _displayGroups
                    0x300a                  _savedBits
                    0x300c                  _phyPIB
                    0x3012                  _IntStatus
                    0x3014                  _pendingAckFrameControl
                    0x3016                  _phyError
                    0x3017                  _PHYTasksPending
                    0x3018                  _RxData
                    0x3019                  _TRXCurrentState
                    0x301a                  _TxStat
                    0x301c                  _Config_Node_Descriptor
                    0x302c                  _Config_Power_Descriptor
                    0x302e                  __allocx
                    0x3032                  __alloct
                    0x3034                  __allocp
                    0x3036                  __allocs
                    0x303e                  _macLongAddrByte
                    0x3046                  _pRAMNeighborTable
                    0x304a                  __time_chk
                    0x3052                  __rtcc_flag
                    0x3054                  _RoLongFlage
                    0x3055                  _UpdateNotifyCount
                    0x3056                  _activatePANIDConflict
                    0x3057                  _activateAddConfDetection
                    0x3058                  _waitForKey
                    0x3059                  _rejoin_retries
                    0x305a                  _doingRejoinCommand
                    0x305b                  _updatepayload
                    0x305c                  _panIdListCounter
                    0x305e                  _AskDeviceAddress
                    0x305f                  _NewChannel
                    0x3060                  _CurrentChannelEnergy
                    0x3062                  _lcount
                    0x3064                  _AllowJoin
                    0x3065                  _State
                    0x3066                  _NetworkDescIndex
                    0x3068                  _NowIam
                    0x306a                  _I_AM_TRUST_CENTER
                    0x306b                  _USE_COMMON_TC_LINK_KEY
                    0x306c                  _DEFAULT_STARTUP_CONTROL
                    0x306e                  _MSDCL_Commission_Locations
                    0x3070                  _MAXDISCOVERYYRETRIES
                    0x3072                  _displayState
                    0x3074                  _displayTimer
                    0x3082                  __sobuf
                    0x3084                  __sibuf
                    0x3086                  __outdone
                    0x3088                  _QuickPoll
                    0x3089                  _SentBindRequest
                    0x308a                  _firstKeyHasBeenSent
                    0x308c                  _storeMsduHandle
                    0x308d                  _interPanDataTransmitted
                    0x308e                  _storeAsduHandle
                    0x3090                  _CountCurrentMemoryAllocated
                    0x3092                  _timerExtension1
                    0x3093                  _timerExtension2
                    0x3094                  _MyCurrentChannel
                    0x3095                  _InterruptRoutineSet
                    0x3096                  _destinationEndPoint
                    0x3098                  _appNextSeqNum_MTR
                    0x309c                  _appNextSeqNum_ESP
                    0x309e                  _inputIndex
                    0x309f                  _totalExtensionFieldLength
                    0x30a0                  ___curbrk
                    0x30a2                  ___C30_UART

External Symbols in Data Memory (by name):

                    0x14ac                  _ACKTimeOut
                    0x2f6c                  _AILReceiveQueue
                    0x2f82                  _AILReceiveQueueHeadIndex
                    0x2f83                  _AILReceiveQueueTailIndex
                    0x2f58                  _AILTransmitQueue
                    0x2f80                  _AILTransmitQueueHeadIndex
                    0x2f81                  _AILTransmitQueueTailIndex
                    0x2f24                  _ALLOWED_CHANNELS
                    0x21f2                  _APSCounter
                    0x1df8                  _ASSOCIATE_indication_Time
                    0x2d16                  _AckReceived
                    0x27f9                  _AlarmEntries
                    0x2db7                  _AllScanCommandComplet
                    0x3064                  _AllowJoin
                    0x0b50                  _AppGroupsNameTable
                    0x2f28                  _App_AttributeStorageTable
                    0x14f4                  _App_AttributeStorageTable_ESP
                    0x2bae                  _App_AttributeStorageTable_MTR
                    0x0bd0                  _App_ScenesTable
                    0x305e                  _AskDeviceAddress
                    0x21cc                  _AuthorizationTimeout
                    0x2f54                  _ChannelsToBeScanned
                    0x080e                  _CommRestartTime
                    0x27a3                  _CommRestartTimerInProgress
                    0x2798                  _Commissioned_SAS
                    0x301c                  _Config_Node_Descriptor
                    0x302c                  _Config_Power_Descriptor
                    0x2f52                  _Config_Simple_Descriptors
                    0x3090                  _CountCurrentMemoryAllocated
                    0x3060                  _CurrentChannelEnergy
                    0x1f90                  _CurrentRxPacket
                    0x306c                  _DEFAULT_STARTUP_CONTROL
                    0x1f76                  _DataToBeSendAfterRouteRecord
                    0x14ee                  _ESP_DeviceClientinfo
                    0x14e8                  _ESP_DeviceServerinfo
                    0x1eb8                  _EdRecords
                    0x103c                  _EndDeviceAnounceTable
                    0x143c                  _ExtPANIDStatus
                    0x2dac                  _HowManyData
                    0x306a                  _I_AM_TRUST_CENTER
                    0x2408                  _IncomingFrameCount
                    0x0b44                  _InitiatorDeviceInfo
                    0x3012                  _IntStatus
                    0x1ece                  _InterferenceDetected
                    0x3095                  _InterruptRoutineSet
                    0x23bc                  _KeyVal
                    0x185e                  _LCEReqFrameVal
                    0x144a                  _ListOfExtendedPANIdinVicinity
                    0x159a                  _ListOfPriceEvents
                    0x1819                  _LoadControlEventCommandPayloadDefaultValue
                    0x0ea0                  _MACAddMeter
                    0x3070                  _MAXDISCOVERYYRETRIES
                    0x2f20                  _MAX_ENERGY_THRESHOLD
                    0x2f2a                  _MSDCL_Commission
                    0x306e                  _MSDCL_Commission_Locations
                    0x2811                  _MainsVoltageDwellTripPointHandled
                    0x2ba8                  _Meter_DeviceClientinfo
                    0x2ba2                  _Meter_DeviceServerinfo
                    0x2b74                  _MeteringGetProfileResponse
                    0x1866                  _MeteringIntervalsTable
                    0x103a                  _MyCommandFlag
                    0x3094                  _MyCurrentChannel
                    0x1eb6                  _NIB
                    0x297c                  _NetworkDesc
                    0x3066                  _NetworkDescIndex
                    0x2976                  _NetworkDescriptor
                    0x2d17                  _NetworkStatusCommandResponse
                    0x305f                  _NewChannel
                    0x2bfe                  _NoOfEntriesInAttrStorageTable
                    0x1884                  _NoOfEntriesInAttrStorageTable_ESP
                    0x3068                  _NowIam
                    0x2eca                  _NumberOfExtensionFields
                    0x2db0                  _NumberofReceived
                    0x2dae                  _NumberofSeperator
                    0x297a                  _NwkDiscoveryTries
                    0x2974                  _NwkJoinTries
                    0x2400                  _OutgoingFrameCount
                    0x3017                  _PHYTasksPending
                    0x1cfe                  _ParentAddress
                    0x123c                  _PerMissionEndDeviceAnounceTable
                    0x14b8                  _PrvSendIeeeAddr
                    0x154e                  _PublishPriceCommandPayloadDefaultValue
                    0x2ede                  _PublishPriceInfo
                    0x1582                  _PublishPriceRequestFrameValue
                    0x3088                  _QuickPoll
                    0x262a                  _RAMNeighborTable
                    0x0816                  _ReportingBgTasks
                    0x14a4                  _RestartDeviceAfterCommission
                    0x0812                  _RestartDeviceCmdPayload
                    0x1df0                  _RoLoAddr
                    0x3054                  _RoLongFlage
                    0x1d00                  _RouteRecordTable
                    0x20c4                  _RxBuffer
                    0x3018                  _RxData
                    0x21ca                  _RxRead
                    0x21c9                  _RxWrite
                    0x2db3                  _ScanCommandSend
                    0x2db6                  _ScanResponceReceived
                    0x2906                  _SendIee
                    0x3089                  _SentBindRequest
                    0x2d1e                  _StartNetworkFlag
                    0x1cea                  _StartTime_GetNode
                    0x3065                  _State
                    0x21d4                  _TCLinkKeyInfo
                    0x272a                  _TCLinkKeyTable
                    0x3019                  _TRXCurrentState
                    0x2db4                  _TimeExitDelayForReset
                    0x14a8                  _TimeOutStartTime
                    0x14b0                  _TotalMeterGetConnceted1
                    0x14b4                  _TotalMeterGetConnceted2
                    0x2db8                  _TotalScanCommandSend
                    0x1ecc                  _TotalTransmitFailures
                    0x1eca                  _TotalTransmittedPackets
                    0x1fbe                  _TxBuffer
                    0x20be                  _TxData
                    0x20bf                  _TxHeader
                    0x301a                  _TxStat
                    0x306b                  _USE_COMMON_TC_LINK_KEY
                    0x2d20                  _Uart2Buffer
                    0x14a7                  _Uart2Datalen
                    0x3055                  _UpdateNotifyCount
                    0x1442                  _UrCommand
                    0x1446                  _UrRW
                    0x1440                  _UrSeqNumner
                    0x1444                  _Urlen
                    0x1448                  _Urp_dataInd
                    0x21d0                  _WaitForAuthentication
                    0x1666                  _ZCL_Message_DisplayMessageTable
                    0x292a                  _ZDOCounter
                    0x20c0                  _ZigBeeStatus
                    0x2fae                  __Files
                    0x30a2                  ___C30_UART
                    0x30a0                  ___curbrk
                    0x3034                  __allocp
                    0x3036                  __allocs
                    0x3032                  __alloct
                    0x302e                  __allocx
                    0x2fb0                  __iob
                    0x3086                  __outdone
                    0x3052                  __rtcc_flag
                    0x3084                  __sibuf
                    0x3082                  __sobuf
                    0x304a                  __time_chk
                    0x3057                  _activateAddConfDetection
                    0x3056                  _activatePANIDConflict
                    0x279a                  _activeSASIndex
                    0x1f7e                  _addressConflictOnChildEndDevice
                    0x27d8                  _alarmConditionTableEntries
                    0x2812                  _appIdentifyTimers
                    0x2728                  _appLinkKeyTable
                    0x309c                  _appNextSeqNum_ESP
                    0x3098                  _appNextSeqNum_MTR
                    0x2f22                  _appNextSeqNum_PTR
                    0x29ce                  _appNotification
                    0x21c4                  _appNotify
                    0x2818                  _appPowerConfigMainsDwellTrip
                    0x270e                  _apsAddressMap
                    0x270c                  _apsAddressMapValidityKey
                    0x25ea                  _apsBindingTable
                    0x2212                  _apsChannelMask
                    0x2254                  _apsConfirmationHandles
                    0x22bc                  _apsDuplicateTable
                    0x2280                  _apsFragmentationInfo
                    0x25f4                  _apsGroupAddressTable
                    0x2216                  _apsStatus
                    0x2e79                  _asduData
                    0x2c76                  _associationReqParams
                    0x083a                  _attributeDataStorageInRAM_ESP
                    0x09c3                  _attributeDataStorageInRAM_MTR
                    0x2ecb                  _attribute_count
                    0x25ee                  _bindingTableSourceNodeMap
                    0x25ec                  _bindingTableUsageMap
                    0x25f0                  _bindingValidityKey
                    0x25ce                  _buffer
                    0x27a4                  _clusterSecurityTable
                    0x27a2                  _commissioningRestartInProgress
                    0x272e                  _configNodeDescriptor
                    0x2730                  _configPowerDescriptor
                    0x2732                  _configSimpleDescriptors
                    0x2702                  _currentAPSAddress
                    0x23f4                  _currentAPSAddress1
                    0x21f4                  _currentAppLinkKeyTable
                    0x25e2                  _currentBindingRecord
                    0x23de                  _currentGroupAddressRecord
                    0x25f8                  _currentNeighborRecord
                    0x2616                  _currentNeighborTableInfo
                    0x2978                  _currentNetworkDescriptor
                    0x2710                  _currentNetworkKeyInfo
                    0x2c7a                  _currentPacket
                    0x1cee                  _currentPrimitive_ESP
                    0x2fea                  _currentPrimitive_MTR
                    0x26f8                  _currentRoutingEntry
                    0x2736                  _current_SAS
                    0x292b                  _dAddr
                    0x2796                  _default_SAS
                    0x3096                  _destinationEndPoint
                    0x2ff6                  _displayGroups
                    0x173a                  _displayMessagesTable
                    0x082c                  _displayQuotient
                    0x3072                  _displayState
                    0x3074                  _displayTimer
                    0x305a                  _doingRejoinCommand
                    0x2ed0                  _espStatus
                    0x2ec9                  _extensionFieldIndex
                    0x308a                  _firstKeyHasBeenSent
                    0x18ea                  _fragmentData
                    0x23da                  _fragmentDataSize
                    0x23d9                  _fragmentInterframeDelay
                    0x23dc                  _fragmentTotalDataLength
                    0x23d8                  _fragmentWindowSize
                    0x1f86                  _frame_counter
                    0x2e5c                  _inputBuf_ESP
                    0x2aaa                  _inputBuf_MTR
                    0x309e                  _inputIndex
                    0x2fd6                  _interPANDataRequest
                    0x308d                  _interPanDataTransmitted
                    0x29cc                  _joinReqType
                    0x25be                  _key
                    0x23cc                  _lastPollTime
                    0x3062                  _lcount
                    0x28fa                  _leavingChildDetails
                    0x2c8c                  _macIndirectBuffers
                    0x303e                  _macLongAddrByte
                    0x25de                  _macLongAddrEE
                    0x25e0                  _macLongAddrValidityKey
                    0x2c50                  _macPIB
                    0x2cf0                  _macStatus
                    0x2cf1                  _macTasksPending
                    0x080c                  _mainsVoltageDwellTripPointValue
                    0x29d0                  _matchCluster1
                    0x29d2                  _matchCluster2
                    0x2e76                  _menuLevel1
                    0x2e77                  _menuLevel2
                    0x2e78                  _menuLevel3
                    0x1ed0                  _messageToForward
                    0x1886                  _meterAttributes_DisplayStateTable
                    0x2f12                  _meterFormatAttributes
                    0x2fec                  _meterReadingValue
                    0x279c                  _meterStatus
                    0x29c4                  _mgmtNwkUpateRequestDetails
                    0x1816                  _mirrorStatus
                    0x1e15                  _msduHandle
                    0x26f2                  _neighborTable
                    0x26f4                  _neighborTableInfo
                    0x2724                  _networkKeyInfo
                    0x272c                  _nodeDescriptorValidityKey
                    0x2ece                  _numberOfPriceEvents
                    0x2ecf                  _numberofTiersSupported
                    0x2db2                  _numberofdatareceived
                    0x2722                  _nwkActiveKeyNumber
                    0x1e16                  _nwkConfirmationHandles
                    0x1cf0                  _nwkDesExtendedPANID
                    0x1eb7                  _nwkSecurityLevel
                    0x1ed2                  _nwkStatus
                    0x2726                  _outgoingFrameCounterIndex
                    0x2f4e                  _pAppListOfDeviceClientInfo
                    0x14f2                  _pAppListOfDeviceClientInfo_ESP
                    0x2bac                  _pAppListOfDeviceClientInfo_MTR
                    0x2f4a                  _pAppListOfDeviceServerInfo
                    0x14ec                  _pAppListOfDeviceServerInfo_ESP
                    0x2ba6                  _pAppListOfDeviceServerInfo_MTR
                    0x290e                  _pBindInProgressInfo
                    0x25f2                  _pCurrentBindingRecord
                    0x25f6                  _pCurrentGroupAddressRecord
                    0x26f6                  _pCurrentNeighborRecord
                    0x2700                  _pCurrentRoutingEntry
                    0x14d6                  _pESPClusterClientDefinition
                    0x14c0                  _pESPClusterServerDefinition
                    0x2b8e                  _pMeterClusterClientDefinition
                    0x2b7e                  _pMeterClusterServerDefinition
                    0x3046                  _pRAMNeighborTable
                    0x1f5c                  _panIDConflictStatus
                    0x305c                  _panIdListCounter
                    0x1f92                  _params
                    0x3014                  _pendingAckFrameControl
                    0x2734                  _persistencePIB
                    0x3016                  _phyError
                    0x300c                  _phyPIB
                    0x259a                  _plainSecurityKey
                    0x23e8                  _previousKeyNotSeq0
                    0x1dfc                  _rejoinIndication
                    0x1e14                  _rejoinIndicationPending
                    0x1f8e                  _rejoinShortAddress
                    0x1f80                  _rejoinWithSec
                    0x1f74                  _rejoin_network
                    0x3059                  _rejoin_retries
                    0x0830                  _remainderArray
                    0x281e                  _reportConfigurationTable
                    0x1f6c                  _routeDiscoveryTablePointer
                    0x1f5d                  _routeDstInfo
                    0x26fe                  _routingTable
                    0x300a                  _savedBits
                    0x2cf2                  _scanParams
                    0x28ec                  _sceneValidInfo
                    0x28e2                  _scenesRecallCmdRecord
                    0x2598                  _securityStatus
                    0x2904                  _sendrequestSource
                    0x2910                  _sequenceNumber
                    0x292e                  _simpleDescriptor
                    0x29cd                  _startMode
                    0x308e                  _storeAsduHandle
                    0x308c                  _storeMsduHandle
                    0x29c2                  _syncLoss
                    0x2d0e                  _tempLongAddress
                    0x0806                  _temp_count
                    0x2c00                  _testMeterProfiles
                    0x1f82                  _timeBetweenScanDuringRejoin
                    0x3092                  _timerExtension1
                    0x3093                  _timerExtension2
                    0x309f                  _totalExtensionFieldLength
                    0x23d0                  _transportKeySrcAddr
                    0x23ea                  _updateDevAPSAddr
                    0x305b                  _updatepayload
                    0x3058                  _waitForKey
                    0x2d1f                  _waitingForDeta
                    0x2912                  _zdoStatus

External Symbols in Program Memory (by address):

                  0x000200                  __resetPRI
                  0x000222                  __psv_init
                  0x000232                  __data_init
                  0x000232                  __data_init_standard
                  0x0002d4                  __DefaultInterrupt
                  0x000390                  ___umodsi3
                  0x000396                  ___udivsi3
                  0x0003b6                  ___muldi3
                  0x000438                  ___udivmoddi3
                  0x000506                  ___udivdi3
                  0x000514                  ___umoddi3
                  0x00051c                  ___divdi3
                  0x000556                  ___moddi3
                  0x000628                  ___floatsisf
                  0x00067e                  ___subsf3
                  0x000680                  ___addsf3
                  0x00073a                  ___gtsf2
                  0x00073a                  ___gesf2
                  0x00073e                  ___mulsf3
                  0x0007a6                  ___fixunssfsi
                  0x0007dc                  ___umuldi3
                  0x000820                  __fpack
                  0x00086c                  __funpack2
                  0x00087c                  __fPropagateNaN
                  0x00088e                  __fbopExit
                  0x000896                  __fbopReturnNaN
                  0x00089c                  __fcompare
                  0x0008d2                  __funpack
                  0x0008fc                  _malloc
                  0x000a20                  _free
                  0x000a2c                  _realloc
                  0x000a86                  _memset
                  0x000a94                  _memcmp
                  0x000ac8                  _memcpy
                  0x000ad6                  __sprintf_cdnopuxX
                  0x000b04                  __vfprintf_cdnopuxX
                  0x00140a                  _menu_ESP
                  0x00155e                  _settingsMenu_ESP
                  0x00162c                  _genericCommandsMenu_ESP
                  0x001686                  _basicClusterMenu_ESP
                  0x0016f2                  _identifyClusterMenu_ESP
                  0x0017ba                  _commissioningClusterMenu
                  0x00182c                  _messageClusterMenu
                  0x001884                  _meteringClusterMenu_ESP
                  0x0018d2                  _priceClusterMenu_ESP
                  0x001980                  _drlcClusterMenu
                  0x001a1a                  _interPANMenu_ESP
                  0x001a58                  _displayMenu_ESP
                  0x001b02                  _alarmClusterMenu_ESP
                  0x001bfa                  _groupsClusterMenu_ESP
                  0x001d2c                  _scenesClusterMenu_ESP
                  0x001dae                  _fragmentationMenu_ESP
                  0x0043f4                  _menu_MTR
                  0x0044ec                  _settingsMenu_MTR
                  0x0045ba                  _genericCommandsMenu_MTR
                  0x004614                  _basicClusterMenu_MTR
                  0x004680                  _identifyClusterMenu_MTR
                  0x0046f2                  _meteringClusterMenu_MTR
                  0x00476a                  _priceClusterMenu_MTR
                  0x0047f6                  _interPANMenu_MTR
                  0x004834                  _displayMenu_MTR
                  0x0048de                  _alarmClusterMenu_MTR
                  0x0049d6                  _groupsClusterMenu_MTR
                  0x004b08                  _scenesClusterMenu_MTR
                  0x004b8a                  _fragmentationMenu_MTR
                  0x005938                  _GetDataFromMeter
                  0x00593e                  _AddMeterCommand
                  0x005944                  _AddMeterCommandResponce
                  0x005949                  _NumberOfAddedMetersCommand
                  0x00594f                  _NumberofAddedMeterResponce
                  0x005954                  _MyChannelNumberCommand
                  0x00595a                  _MyChannelNumberResponce
                  0x00595f                  _MyRouteRequest
                  0x005965                  _NetworkStatusCommand
                  0x00596b                  _NetworkStartCommand
                  0x005971                  _NetworkStopCommand
                  0x005977                  _SetNetworkExtendedPANIdCommand
                  0x00597d                  _SetNetworkLinkKeyCommand
                  0x005983                  _SetNetworkDeviceTypeCommand
                  0x005989                  _SetNetworkResetCommand
                  0x00598f                  _SetNetworkDefaultESPCommand
                  0x005995                  _SetNetworkChannelMaskCommand
                  0x00599b                  _DeviceStartIndication
                  0x0059a6                  _NetworkStartCommandResponse
                  0x0059ac                  _NetworkStopCommandResponse
                  0x0059b3                  _SetNetworkExtendedPANIdCommandResponse
                  0x0059b9                  _SetNetworkLinkKeyCommandResponse
                  0x0059bf                  _SetNetworkDeviceTypeCommandResponse
                  0x0059c5                  _SetNetworkResetCommandResponse
                  0x0059cc                  _SetNetworkDefaultESPCommandResponse
                  0x0059d2                  _SetNetworkChannelMaskResponce
                  0x005cfa                  _ESP_IdentifyAttributeDefaultValue
                  0x005cfc                  _ESP_GroupsAttributeDefaultValue
                  0x005cfe                  _ESP_TimeAttributeDefaultValue
                  0x005d1c                  _ESP_BasicAttributeDefaultValue
                  0x005d64                  _ESP_PriceAttributeDefaultValue
                  0x005dac                  _ESP_ScenesAttributeDefaultValue
                  0x005dba                  _ESP_PowerConfigurationAttributeDefaultValue
                  0x005ddc                  _ESP_AlarmAttributeDefaultValue
                  0x005dde                  _ESP_MeteringAttributeDefaultValue
                  0x005e86                  _Meter_IdentifyAttributeDefaultValue
                  0x005e88                  _Meter_GroupsAttributeDefaultValue
                  0x005e8a                  _Meter_ScenesAttributeDefaultValue
                  0x005e98                  _Meter_BasicAttributeDefaultValue
                  0x005ee0                  _Meter_MeteringAttributeDefaultValue
                  0x005f88                  _Meter_CommissioningAttributeDefaultValues
                  0x005fe6                  _Meter_PowerConfigurationAttributeDefaultValue
                  0x006008                  _Meter_AlarmAttributeDefaultValue
                  0x0062ac                  _SwitchTable
                  0x0062b4                  _MICTable
                  0x0062bc                  _defaultMasterKey
                  0x0062cc                  _flagTable
                  0x0062cf                  _STable
                  0x0063d0                  _zcl_MeteringAttributeServerInfo
                  0x006480                  _zcl_MeteringClusterServerInfo
                  0x006486                  _zcl_MeteringClusterServerDefinition
                  0x00648a                  _zcl_MeteringClusterClientInfo
                  0x006490                  _zcl_MeteringClusterClientDefinition
                  0x0065f6                  _timeToAdd
                  0x006690                  _Config_Simple_Descriptors_ESP
                  0x00671c                  _Config_NWK_Mode_and_Params_ESP
                  0x006726                  _Config_Simple_Descriptors_MTR
                  0x0067b2                  _Config_NWK_Mode_and_Params_MTR
                  0x0067bc                  _zcl_CommissioningAttributeServerInfo
                  0x00681c                  _zcl_CommissioningClusterServerInfo
                  0x006822                  _zcl_CommissioningClusterServerDefinition
                  0x006826                  _zcl_CommissioningClusterClientInfo
                  0x00682c                  _zcl_CommissioningClusterClientDefinition
                  0x006830                  _aGenericCommandFuncPointerLookUpTable
                  0x00684c                  _AttributeLengthLookUpTable
                  0x00689a                  _zcl_PowerConfigurationAttributeServerInfo
                  0x0068d2                  _zcl_PowerConfigurationClusterServerInfo
                  0x0068d8                  _zcl_PowerConfigurationClusterServerDefinition
                  0x0068dc                  _zcl_PowerConfigurationClusterClientInfo
                  0x0068e2                  _zcl_PowerConfigurationClusterClientDefinition
                  0x0068e6                  _zcl_BasicAttributeServerInfo
                  0x006916                  _zcl_BasicClusterServerInfo
                  0x00691c                  _zcl_BasicClusterServerDefinition
                  0x006920                  _zcl_BasicClusterClientInfo
                  0x006926                  _zcl_BasicClusterClientDefinition
                  0x00696c                  _ZCL_TimeAttributeServerInfo
                  0x00698c                  _zcl_TimeClusterServerInfo
                  0x006992                  _zcl_TimeClusterServerDefinition
                  0x006996                  _zcl_TimeClusterClientInfo
                  0x00699c                  _zcl_TimeClusterClientDefinition
                  0x0069a0                  _zcl_ScenesAttributeServerInfo
                  0x0069b8                  _zcl_ScenesClusterServerInfo
                  0x0069be                  _zcl_ScenesClusterServerDefinition
                  0x0069c2                  _zcl_ScenesClusterClientInfo
                  0x0069c8                  _zcl_ScenesClusterClientDefinition
                  0x0069cc                  _ZCL_PriceAttributeServerInfo
                  0x0069e4                  _zcl_PriceClusterServerInfo
                  0x0069ea                  _zcl_PriceClusterServerDefinition
                  0x0069ee                  _zcl_PriceClusterClientInfo
                  0x0069f4                  _zcl_PriceClusterClientDefinition
                  0x0069f8                  _zcl_DRLCClusterServerInfo
                  0x0069fe                  _zcl_DRLCClusterServerDefinition
                  0x006a02                  _zcl_DRLCAttributeClientInfo
                  0x006a12                  _zcl_DRLCClusterClientInfo
                  0x006a18                  _zcl_DRLCClusterClientDefinition
                  0x006a1c                  _CharacterArray
                  0x006a82                  _zcl_GroupsAttributeServerInfo
                  0x006a86                  _zcl_GroupsClusterServerInfo
                  0x006a8c                  _zcl_GroupsClusterServerDefinition
                  0x006a90                  _zcl_GroupsClusterClientInfo
                  0x006a96                  _zcl_GroupsClusterClientDefinition
                  0x006a9a                  _zcl_IdentifyAttributeServerInfo
                  0x006a9e                  _zcl_IdentifyClusterServerInfo
                  0x006aa4                  _zcl_IdentifyClusterServerDefinition
                  0x006aa8                  _zcl_IdentifyClusterClientInfo
                  0x006aae                  _zcl_IdentifyClusterClientDefinition
                  0x006ab2                  _zcl_AlarmAttributeServerInfo
                  0x006ab6                  _zcl_AlarmClusterServerInfo
                  0x006abc                  _zcl_AlarmClusterServerDefinition
                  0x006ac0                  _zcl_AlarmClusterClientInfo
                  0x006ac6                  _zcl_AlarmClusterClientDefinition
                  0x006aca                  _zcl_MessageClusterServerInfo
                  0x006ad0                  _zcl_MessageClusterServerDefinition
                  0x006ad4                  _zcl_MessageClusterClientInfo
                  0x006ada                  _zcl_MessageClusterClientDefinition
                  0x006ade                  _releaseVersionNumber
                  0x006afe                  _monthDaysTable
                  0x006b0e                  _NWKHasBackgroundTasks
                  0x006b1c                  _NWKInit
                  0x006bf2                  _NWKTasks
                  0x00b7ca                  _AddChildNode
                  0x00b888                  _CanAddChildNode
                  0x00b8b6                  _CanAddNeighborNode
                  0x00b8ec                  _CreateNewBTR
                  0x00b97e                  _CreateRouteReply
                  0x00ba8a                  _FindFreeRoutingTableEntry
                  0x00bb18                  _CreateRoutingTableEntries
                  0x00bc1e                  _FindNextHopAddress
                  0x00bcac                  _GetNextHop
                  0x00bd0a                  _GetDestFromRoutingTable
                  0x00bda2                  _GetMulticastRoutingEntry
                  0x00be14                  _GetRoutingAddress
                  0x00be90                  _HaveRoutingCapacity
                  0x00bf28                  _InitiateRouteDiscovery
                  0x00c2f0                  _MarkNeighborAsPasssiveACKed
                  0x00c336                  _NLME_GET_nwkBCSN
                  0x00c348                  _NWKClearNeighborTable
                  0x00c3c2                  _NWKClearRoutingTable
                  0x00c3f8                  _NWKGet
                  0x00c4f6                  _IsThisAddressKnown
                  0x00c58e                  _IsThisLongAddressKnown
                  0x00c6d4                  _NWKLookupNodeByLongAddr
                  0x00c720                  _NWKLookupNodeByExtendedPANId
                  0x00c766                  _NWKLookupNodeByShortAddrVal
                  0x00c7a4                  _NWKLookupNodeByRxOffDeviceShortAddrVal
                  0x00c7ea                  _NWKFindRandomNeighbor
                  0x00c842                  _NWKLookupNodeByShortAddrValAndPANID
                  0x00c88c                  _NWKThisIsMyLongAddress
                  0x00c8b6                  _NWKTidyNeighborTable
                  0x00c930                  _Prepare_MCPS_DATA_request
                  0x00c98a                  _RemoveNeighborTableEntry
                  0x00c9d4                  _RemoveRoutingTableEntry
                  0x00ca1a                  _AgeOutRoutingTableEntries
                  0x00ca72                  _ClearRoutingTableEntry
                  0x00cac2                  _RequestedPANIDFound
                  0x00cb06                  _SetBeaconPayload
                  0x00cb58                  _VariableAndTableInitialization
                  0x00cc72                  _clearNWKKEy
                  0x00ccea                  _GenerateNewShortAddr
                  0x00cd0a                  _IsThereAddressConflict
                  0x00cdb6                  _PrepareUnsolicitedRejoinRsp
                  0x00ce28                  _PrepareNwkStatusCmdBroadcast
                  0x00cf38                  _CreateSourceRouteSubframe
                  0x00cfbc                  _GetIndexInRouteRecord
                  0x00d160                  _StoreRouteRecord
                  0x00d1ca                  _GetIndexToAddInRouteRecordTable
                  0x00d246                  _CreateRelyingRouteRecord
                  0x00d34a                  _CreateNwkHeaderForDataAndStoreData
                  0x00d3b8                  _LoadBackUpDataToTxBuffer
                  0x00d44a                  _PrepareNetworkReportCmdFrame
                  0x00d4ca                  _PrepareNetworkUpdateCmdFrame
                  0x00d588                  _CalculateLinkQuality
                  0x00d7f4                  _VerifyNetworkManager
                  0x00d810                  _StorePersistancePIB
                  0x00d892                  _RestorePersistencePIB
                  0x00d906                  _ClearNeighborTable
                  0x00d95c                  _SetMulticastParams
                  0x00d98e                  _InitNVMWithDefaultValues
                  0x00da84                  _ZDOHasBackgroundTasks
                  0x00da90                  _ZDOInit
                  0x00dade                  _ZDOTasks
                  0x00fa40                  _DeleteRouteRecord
                  0x00faa6                  _GetHashKey
                  0x00fac8                  _FinishAddressResponses
                  0x00fbcc                  _IsThisMyShortAddr
                  0x00fbfe                  _GetOneEndDeviceBindRequest
                  0x00fcde                  _ProcessEndDeviceBind
                  0x00fdc2                  _FindMatch
                  0x00fe54                  _SendBindOrUnbind
                  0x00ff24                  _ClearMemoryAllocatedForEB
                  0x00ffd8                  _Send_END_DEVICE_BIND_rsp
                  0x010004                  _PrepareMessageResponse
                  0x010070                  _handleActiveEPReq
                  0x0100c0                  _handleLQIReq
                  0x010236                  _handleRTGReq
                  0x01037e                  _handleMatchDescReq
                  0x010558                  _ProcessBindAndUnbind
                  0x01079e                  _SendBindAddressRequest
                  0x010822                  _SendUpBindResult
                  0x010882                  _Initdefault_SAS
                  0x010b10                  _GetActiveSAS
                  0x010b7e                  _GetCurrentSAS
                  0x010b82                  _RestartDevice
                  0x010be6                  _SaveSAS
                  0x010c00                  _RestoreSAS
                  0x010c2e                  _ResetSAStablevalidity
                  0x010c6e                  _ResetAllSAStablevalidity
                  0x010c80                  _SetActiveIndex
                  0x010d38                  _ResetSAS
                  0x010db2                  _SaveCurrentSAS
                  0x010de4                  _updateCurrentSAS
                  0x010dee                  _updateCommissioningParameters
                  0x010e14                  _SetNextChildAddr
                  0x010e36                  _ResolveLocalAddressConflict
                  0x010e6a                  _SetOwnShortAddr
                  0x010f98                  _JoinRequest
                  0x010ff2                  _InitiateStartup
                  0x0111aa                  _SetTCLinkKeyInfo
                  0x011204                  _GetTCLinkKeyInfo
                  0x01124c                  _UpdateTCLinkKey
                  0x011294                  _ZDOSwitchChannel
                  0x0112c8                  _ZDOChangeNetworkManager
                  0x0113fa                  _SetPANId
                  0x011408                  _MyAskForDeviceAddress
                  0x01144a                  _MySendAddressRequest
                  0x0114ea                  _APSHasBackgroundTasks
                  0x0114f6                  _APSInit
                  0x0115ae                  _APSTasks
                  0x013a0e                  _APSFillSecurityRequest
                  0x013b1a                  _APSAddBindingInfo
                  0x013d20                  _APSClearAPSAddressTable
                  0x013d60                  _APSGet
                  0x013d7a                  _APSRemoveBindingInfo
                  0x013e68                  _LookupAPSAddress
                  0x013eb0                  _APSSaveAPSAddress
                  0x013f0e                  _LookupAPSLongAddress
                  0x013f4e                  _LookupSourceBindingInfo
                  0x013fce                  _RemoveAllBindings
                  0x014194                  _APSFromShortToLong
                  0x0141d6                  _APSFromLongToShort
                  0x014202                  _DuplicatePacket
                  0x014296                  _GetEndPointsFromGroup
                  0x0142d6                  _GetEmptyGroup
                  0x01430e                  _AddGroup
                  0x014398                  _RemoveGroup
                  0x014450                  _RemoveAllGroups
                  0x014490                  _APLDiscardRx
                  0x0144a2                  _UpdateFragmentParams
                  0x0144b2                  _HandleFragmentDataRequest
                  0x014b68                  _SearchForLinkKey
                  0x014bf8                  _FormatTxBuffer
                  0x014c62                  _initAPPLinkKeyTable
                  0x014ccc                  _TunnelTransportKey
                  0x014d58                  _SearchForTCLinkKey
                  0x014dce                  _ApplyAPSSecurityToAPSACK
                  0x014ee0                  _GetGroupByIndex
                  0x014f0c                  _VerifyGroupAddrAndEndPoint
                  0x014f52                  _ProcessMenu_ESP
                  0x01524e                  _HandleESPDefault
                  0x015318                  _HandleESPtoMtr
                  0x017844                  _PrintMenu_ESP
                  0x017894                  _HandleMettringClusterMenuOptions
                  0x017c40                  _HandleNetworkInformation
                  0x017d8c                  _HandleDiscoverRoute
                  0x018174                  _SE_SendDefaultResponse
                  0x018212                  _SE_GetClusterSpecificSecurity
                  0x018232                  _ZCL_Callback_IsDeviceInIdentifyMode
                  0x018238                  _ZCL_Callback_CheckForAlarmCondition
                  0x0183be                  _SE_UpdateAlarmTable
                  0x0185a8                  _SE_CreateGetAlarmResponse
                  0x01867a                  _App_Reset
                  0x018686                  _App_ResetAttributeData
                  0x0186ae                  _ZCL_Callback_AddEntryIntoReportingTable
                  0x01893e                  _SE_CheckToSendReportAttributeCommand
                  0x0189c2                  _SE_SendReportAttributeCommand
                  0x018b4e                  _SE_UpdateReportReceived
                  0x018bf4                  _SE_GetAttributeIndex
                  0x018c6c                  _ZCL_Callback_ValidateAndCreateReadReportRsp
                  0x018dd4                  _App_WriteSingleAttribute
                  0x018e40                  _App_ResetVariables
                  0x018e50                  _App_SendData
                  0x018edc                  _App_SetCurrentTime
                  0x018f64                  _ZCL_Callback_GetCurrentTimeInSeconds
                  0x018fc6                  _App_TimeInit
                  0x018fe2                  _App_InitAttributeStorage
                  0x019042                  _ZCL_Callback_GetAttributeValue
                  0x019060                  _ZCL_Callback_PutAttributeValue
                  0x01907a                  _ZCL_Callback_GetClusterIndex
                  0x0190a6                  _App_HandleReceivedData
                  0x01951e                  _SE_ValidateSAS
                  0x019604                  _SE_HandleIdentifyTimeout
                  0x01962e                  _SE_SendCommissioningClusterResponse
                  0x019652                  _App_ValidateProfileId
                  0x019680                  _App_StartDevice
                  0x01983c                  _Time_Synchronization
                  0x019860                  _SE_SendNLMELeaveRequest
                  0x019982                  _DisplayForMeterFormattingAttributes
                  0x019b30                  _GetDisplayStateForMeterAttributes
                  0x019b52                  _ZCL_Callback_Put_IdentifyTime
                  0x019b56                  _ZCL_Callback_Get_IdentifyTime
                  0x019b5a                  _App_SendDataOverInterPAN
                  0x019bc8                  _Handle_Fragmented_MessageCluster
                  0x019c1c                  _App_CheckIfReportReceived
                  0x019c4c                  _App_ResetReportAttributeReceived
                  0x019c7a                  _DisplayGroupsClusterCommands
                  0x019ce8                  _DisplayScenesClusterCommands
                  0x019d1a                  _ZCL_Callback_HandleGroupCmds
                  0x019fc8                  _App_AddGroup
                  0x01a01a                  _App_ReadWriteSingleAttribute
                  0x01a076                  _ZCL_Callback_HandleSceneCmds
                  0x01a49c                  _VerifySceneTableEntry
                  0x01a4ce                  _Get_EmptySceneTableEntry
                  0x01a4f6                  _GetClusterDefinition
                  0x01a55c                  _Init_ScenesTable
                  0x01a592                  _Get_SceneTableEntry
                  0x01a5bc                  _Update_AndGetSceneCount
                  0x01a60a                  _Handle_StoreAndRecallSceneCmd
                  0x01a86c                  _Scenes_UpdateSceneValidFields
                  0x01a8c6                  _App_DeleteScenesTableEntry
                  0x01a924                  _Update_sceneExtnWithCurrentAttrb
                  0x01aa52                  _Update_LastConfiguredByAttr
                  0x01aa5e                  _Display_Message
                  0x01aa8c                  _Display_GetProfileResponse
                  0x01aac2                  _Display_PublishPrice_MTR
                  0x01abba                  _ProcessMenu_MTR
                  0x01af18                  _ProcessButtonPress
                  0x01af48                  _HandleESPDefault_MTR
                  0x01c7c8                  _PrintMenu_MTR
                  0x01c806                  _MACHasBackgroundTasks
                  0x01c810                  _MACGet
                  0x01c820                  _MACDiscardRx
                  0x01c82c                  _MACDisable
                  0x01c83c                  _MACEnable
                  0x01c898                  _MACInit
                  0x01c8d0                  _MACTasks
                  0x01e12a                  _MLME_SET_macPANId_hw
                  0x01e140                  _MLME_SET_macShortAddress_hw
                  0x01e576                  _ZCL_GetDataLengthForAttributeDataType
                  0x01e5e0                  _ZCL_ProcessReceivedFrame
                  0x01e798                  _ZCL_CreateDefaultResponseCommand
                  0x01e81a                  _ZCL_ValidateIncomingFrame
                  0x01e8e2                  _ZCL_CreateHeader
                  0x01e98a                  _ZCL_CreateReadAttributeRespCmd
                  0x01ebda                  _ZCL_CreateWriteAttributeRespCmd
                  0x01ec5e                  _ZCL_CreateConfigureReportingResponseCommand
                  0x01ef0c                  _ZCL_CreateReadReportingConfigurationResponseCommand
                  0x01efac                  _ZCL_CreateDiscoverAttributesResponseCommand
                  0x01f1be                  _GetAttributeDetails
                  0x01f468                  _App_SendPublishPriceCommandOnInterPANNetwork
                  0x01f522                  _SE_HandleEvents_ESP
                  0x01f94e                  _App_HandlePendingData_ESP
                  0x01fd30                  _App_UpdateDataConfTable_ESP
                  0x01fd36                  _APP_HandleInterPANDataConfirm_ESP
                  0x01fd40                  _putPhysicalEnvironment
                  0x01fd76                  _setDRLCTable
                  0x01fd8c                  _APP_HandleInterPANDataIndication_ESP
                  0x01ffa8                  _App_UpdatePriceEvents_ESP
                  0x020140                  _App_PriceInit
                  0x02018c                  _App_MessageTableInit
                  0x0201a6                  _initMSDCLTimers
                  0x0201c4                  _TimeOutTime
                  0x0201fa                  _HanddleMSDLClusterParameters
                  0x020256                  _HanddleUART2Request
                  0x02035a                  _CompareNWKTable
                  0x0203cc                  _HanddleUART2
                  0x020506                  _CheckDataAndSend
                  0x020a62                  _SendExtPANIdResponse
                  0x020b08                  _SendModuleStartData
                  0x020b2a                  _SendModuleNetworkSetCommandResponse
                  0x020b58                  _SendAddMeterCommandResponce
                  0x020bb0                  _FindNumberofAddedMetersResponce
                  0x020c22                  _FindMyChannel
                  0x020c6c                  _CheckDeviceJoiningPermission
                  0x020d58                  _EndDeviceLookupNodeByLongAddr
                  0x020dde                  _AddEndDeviceAnnceDevice
                  0x020e68                  _AddNWKAddrReq
                  0x020ed2                  _SE_HandleEvents_MTR
                  0x021302                  _App_HandlePendingData_MTR
                  0x021598                  _App_UpdateDataConfTable_MTR
                  0x02159a                  _APP_HandleInterPANDataConfirm_MTR
                  0x0215a0                  _APP_HandleInterPANDataIndication_MTR
                  0x021908                  _App_UpdatePriceEvents_MTR
                  0x021aa0                  _App_Message_Tick
                  0x021ad0                  _App_PriceInit_MTR
                  0x021b1c                  _App_Meter_ProfileIntervalTableInit
                  0x021b3c                  _ApplyHMACAlgorithm
                  0x021bb6                  _ApplyMatyasMeyerOseasHashfunction
                  0x021caa                  _SetSecurityKey
                  0x021d14                  _InitSecurityKey
                  0x021d90                  _EncKeySchedule
                  0x021e1e                  _EncodeShiftRow
                  0x021e58                  _AESEncode
                  0x021f40                  _SetAi
                  0x021f70                  _Authenticate
                  0x022030                  _Encode
                  0x022086                  _SoftwareCCM_Decrypt
                  0x0220f4                  _SoftwareCCM_Encrypt
                  0x02211e                  _GetActiveNetworkKey
                  0x02217c                  _DataEncrypt
                  0x02227c                  _DataDecrypt
                  0x0224f8                  _KeyDerivationFunction
                  0x02282c                  _HandleESPDisplay
                  0x022ac2                  _HandleMeterDisplay
                  0x022e30                  _Display_Time
                  0x022ee8                  _display_Byte
                  0x0235d2                  _main_ESP
                  0x0236a8                  _HandleChkConnections
                  0x0236b4                  _AppInit
                  0x0236c6                  _AppTasks
                  0x023952                  _HandleFragmentDataConfirm
                  0x023960                  _GetFragmentDataBuffer
                  0x023964                  _AppNotification
                  0x023966                  _SendZDPRequest
                  0x0239f6                  _SendAPPLRequest
                  0x023ab6                  _SetAppLinkKey
                  0x023b36                  _RemoveAppLinkKey
                  0x023b8a                  _SelectLinkKey
                  0x023ba2                  _App_UpdateParamsForTestTool
                  0x023ba6                  _App_HandleDataIndication
                  0x023ba8                  _App_Set_SystemTime
                  0x023bc2                  _main_MTR
                  0x023c86                  _AppInit_MTR
                  0x023c98                  _AppTasks_MTR
                  0x024030                  _AppJoinRequest
                  0x02408c                  _HandleFragmentDataIndication
                  0x0240ca                  _ZCL_Callback_HandleTimeAttributes
                  0x02414c                  _PHYGet
                  0x02415c                  _PHYHasBackgroundTasks
                  0x024162                  _PHYInit
                  0x02427e                  _PHYTasks
                  0x024344                  _PHYSetLongRAMAddr
                  0x02438c                  _PHYSetShortRAMAddr
                  0x0243dc                  _PHYGetShortRAMAddr
                  0x02441a                  _PHYGetLongRAMAddr
                  0x024466                  _PHYSetOutputPower
                  0x02446e                  __INT1Interrupt
                  0x02466e                  _NVMInit
                  0x02490c                  _NVMRead
                  0x02494a                  _ComparePage
                  0x02497e                  _NVMWrite
                  0x024a28                  _ClearNVM
                  0x024a72                  _NVMalloc
                  0x024a88                  _MemReverseCopy
                  0x024aa6                  _main
                  0x024e5c                  _ConsoleInit
                  0x024e6e                  _ConsolePutROMString
                  0x024e88                  _ConsolePut
                  0x024e96                  _PrintChar
                  0x024eac                  _ConsoleGet
                  0x024eba                  _xatoi
                  0x024f9a                  _xputc
                  0x024fae                  _xputs
                  0x024fc4                  _xitoa
                  0x025082                  _xprintf
                  0x025150                  _put_dump
                  0x0251b8                  _GetHexByte
                  0x0251d2                  _ConsolePutString
                  0x0251f0                  _AILInit
                  0x025204                  _AILTasks
                  0x025420                  _AILEnqueue
                  0x0254c0                  _AILDequeue
                  0x02550a                  _x2atoi
                  0x0255ea                  _x2putc
                  0x0255f0                  _x2puts
                  0x025606                  _x2itoa
                  0x0256c4                  _x2printf
                  0x025792                  _put2_dump
                  0x0257fa                  _ZCL_Utility_Time_ConvertYearToSeconds
                  0x0258fe                  _ZCL_Utility_Time_ConvertSecondsToYear
                  0x025a40                  _ZCL_Utility_GetMaxPayloadLength
                  0x025a74                  _ZCL_Utility_Is_Client_Time_Cluster_Supported
                  0x025ae6                  _GetMACByte
                  0x025b44                  _GetMACByteDec
                  0x025ba2                  _HandleUARTRequests
                  0x025c20                  _AppSendData
                  0x025cb4                  _AppSendGroupData
                  0x025cf2                  _App_FindDestEndpointFromBindings
                  0x025d7a                  _Init_LCD
                  0x025dfc                  _lcdInit
                  0x025e7e                  _lcd_cmd
                  0x025ea0                  _lcd_data
                  0x025eca                  _lcdPutChar
                  0x025ef4                  _puts_lcd
                  0x025f12                  _lcdPutStr
                  0x025f28                  _lcdPutCur
                  0x025f32                  _lcdClear
                  0x025f38                  _lcdPutUInt
                  0x025ff4                  _lcdPutSCmd
                  0x026000                  _lcdDelay
                  0x02600e                  _ZigBeeInit
                  0x026050                  _ZigBeeTasks
                  0x02628e                  _RTCCProcessEvents
                  0x0262c2                  _RTCCInit
                  0x026308                  _RTCCSet
                  0x02633e                  _RTCCUnlock
                  0x026350                  _RTCCSetBinSec
                  0x02637a                  _RTCCSetBinMin
                  0x0263a4                  _RTCCSetBinHour
                  0x0263ca                  _RTCCCalculateWeekDay
                  0x02641c                  _RTCCSetBinDay
                  0x02646e                  _RTCCSetBinMonth
                  0x026494                  _RTCCSetBinYear
                  0x0264ce                  _StubAPSHasBackgroundTasks
                  0x0264d2                  _StubAPSInit
                  0x0264d4                  _StubAPSTasks
                  0x026636                  _handleInterPanDataInd
                  0x0266b4                  _handleInterPanDataConf
                  0x0266dc                  _ZCL_HandleDRLCClusterCommand
                  0x0267fa                  _ZCL_CreateReportEventStatusCommand
                  0x02684e                  _ZCL_DRLC_CreateLoadControlEventCmd
                  0x026882                  _ZCL_HandleAlarmClusterCommand
                  0x0269f2                  _ZCL_HandleMeteringClusterCommand
                  0x026b52                  _ZCL_HandlePriceClusterCommand
                  0x026c20                  _ZCL_Price_CreatePublishPriceCmd
                  0x026cac                  _ZCL_HandleMessageClusterCommand
                  0x026d58                  _ZCL_Message_CreateMessageConfirmation
                  0x026dae                  _ZCL_CreateDisplayMessageCommand
                  0x026e06                  _ZCL_HandleScenesClusterCommand
                  0x026f28                  __U1RXInterrupt
                  0x026f7a                  __U1TXInterrupt
                  0x026fba                  _uart_test
                  0x026fbe                  _uart_get
                  0x026fe2                  _uart_put
                  0x02700e                  _uart_init
                  0x02703c                  _uart_kbhit
                  0x027046                  _ZCL_HandleIdentifyClusterCommand
                  0x027162                  _ZCL_HandleGroupsClusterCommand
                  0x027272                  _HardwareInit
                  0x02731e                  __AddressError
                  0x027352                  _ZCL_Time_SetTimeAttribute
                  0x027374                  _ZCL_CheckTimeAttribute
                  0x027418                  _ZCL_HandleTimeClusterCommand
                  0x027432                  _ZCL_HandleCommissioningClusterCommand
                  0x0274be                  _ZCL_HandleBasicClusterCommand
                  0x027520                  _DelayMs
                  0x027542                  _Delay10us
                  0x027556                  _RF_SPIPut
                  0x027566                  _RF_SPIGet
                  0x027570                  _EE_SPIPut
                  0x027580                  _EE_SPIGet
                  0x02758a                  _SRAMalloc
                  0x02759e                  _CurrentMemoryUse
                  0x0275a4                  _ResetMemoryCount
                  0x0275ac                  _SRAMfree
                  0x0275b6                  _SRAMInitHeap
                  0x0275bc                  _Delay
                  0x0275d2                  _Delay_Us
                  0x0275e8                  _InitSymbolTimer
                  0x0275f0                  _TickGetDiff
                  0x027608                  _TickGet
                  0x027610                  _ZCL_HandlePowerConfigurationClusterCommand

External Symbols in Program Memory (by name):

                  0x021e58                  _AESEncode
                  0x0254c0                  _AILDequeue
                  0x025420                  _AILEnqueue
                  0x0251f0                  _AILInit
                  0x025204                  _AILTasks
                  0x014490                  _APLDiscardRx
                  0x01fd36                  _APP_HandleInterPANDataConfirm_ESP
                  0x02159a                  _APP_HandleInterPANDataConfirm_MTR
                  0x01fd8c                  _APP_HandleInterPANDataIndication_ESP
                  0x0215a0                  _APP_HandleInterPANDataIndication_MTR
                  0x013b1a                  _APSAddBindingInfo
                  0x013d20                  _APSClearAPSAddressTable
                  0x013a0e                  _APSFillSecurityRequest
                  0x0141d6                  _APSFromLongToShort
                  0x014194                  _APSFromShortToLong
                  0x013d60                  _APSGet
                  0x0114ea                  _APSHasBackgroundTasks
                  0x0114f6                  _APSInit
                  0x013d7a                  _APSRemoveBindingInfo
                  0x013eb0                  _APSSaveAPSAddress
                  0x0115ae                  _APSTasks
                  0x00b7ca                  _AddChildNode
                  0x020dde                  _AddEndDeviceAnnceDevice
                  0x01430e                  _AddGroup
                  0x00593e                  _AddMeterCommand
                  0x005944                  _AddMeterCommandResponce
                  0x020e68                  _AddNWKAddrReq
                  0x00ca1a                  _AgeOutRoutingTableEntries
                  0x0236b4                  _AppInit
                  0x023c86                  _AppInit_MTR
                  0x024030                  _AppJoinRequest
                  0x023964                  _AppNotification
                  0x025c20                  _AppSendData
                  0x025cb4                  _AppSendGroupData
                  0x0236c6                  _AppTasks
                  0x023c98                  _AppTasks_MTR
                  0x019fc8                  _App_AddGroup
                  0x019c1c                  _App_CheckIfReportReceived
                  0x01a8c6                  _App_DeleteScenesTableEntry
                  0x025cf2                  _App_FindDestEndpointFromBindings
                  0x023ba6                  _App_HandleDataIndication
                  0x01f94e                  _App_HandlePendingData_ESP
                  0x021302                  _App_HandlePendingData_MTR
                  0x0190a6                  _App_HandleReceivedData
                  0x018fe2                  _App_InitAttributeStorage
                  0x02018c                  _App_MessageTableInit
                  0x021aa0                  _App_Message_Tick
                  0x021b1c                  _App_Meter_ProfileIntervalTableInit
                  0x020140                  _App_PriceInit
                  0x021ad0                  _App_PriceInit_MTR
                  0x01a01a                  _App_ReadWriteSingleAttribute
                  0x01867a                  _App_Reset
                  0x018686                  _App_ResetAttributeData
                  0x019c4c                  _App_ResetReportAttributeReceived
                  0x018e40                  _App_ResetVariables
                  0x018e50                  _App_SendData
                  0x019b5a                  _App_SendDataOverInterPAN
                  0x01f468                  _App_SendPublishPriceCommandOnInterPANNetwork
                  0x018edc                  _App_SetCurrentTime
                  0x023ba8                  _App_Set_SystemTime
                  0x019680                  _App_StartDevice
                  0x018fc6                  _App_TimeInit
                  0x01fd30                  _App_UpdateDataConfTable_ESP
                  0x021598                  _App_UpdateDataConfTable_MTR
                  0x023ba2                  _App_UpdateParamsForTestTool
                  0x01ffa8                  _App_UpdatePriceEvents_ESP
                  0x021908                  _App_UpdatePriceEvents_MTR
                  0x019652                  _App_ValidateProfileId
                  0x018dd4                  _App_WriteSingleAttribute
                  0x014dce                  _ApplyAPSSecurityToAPSACK
                  0x021b3c                  _ApplyHMACAlgorithm
                  0x021bb6                  _ApplyMatyasMeyerOseasHashfunction
                  0x00684c                  _AttributeLengthLookUpTable
                  0x021f70                  _Authenticate
                  0x00d588                  _CalculateLinkQuality
                  0x00b888                  _CanAddChildNode
                  0x00b8b6                  _CanAddNeighborNode
                  0x006a1c                  _CharacterArray
                  0x020506                  _CheckDataAndSend
                  0x020c6c                  _CheckDeviceJoiningPermission
                  0x00ff24                  _ClearMemoryAllocatedForEB
                  0x024a28                  _ClearNVM
                  0x00d906                  _ClearNeighborTable
                  0x00ca72                  _ClearRoutingTableEntry
                  0x02035a                  _CompareNWKTable
                  0x02494a                  _ComparePage
                  0x00671c                  _Config_NWK_Mode_and_Params_ESP
                  0x0067b2                  _Config_NWK_Mode_and_Params_MTR
                  0x006690                  _Config_Simple_Descriptors_ESP
                  0x006726                  _Config_Simple_Descriptors_MTR
                  0x024eac                  _ConsoleGet
                  0x024e5c                  _ConsoleInit
                  0x024e88                  _ConsolePut
                  0x024e6e                  _ConsolePutROMString
                  0x0251d2                  _ConsolePutString
                  0x00b8ec                  _CreateNewBTR
                  0x00d34a                  _CreateNwkHeaderForDataAndStoreData
                  0x00d246                  _CreateRelyingRouteRecord
                  0x00b97e                  _CreateRouteReply
                  0x00bb18                  _CreateRoutingTableEntries
                  0x00cf38                  _CreateSourceRouteSubframe
                  0x02759e                  _CurrentMemoryUse
                  0x02227c                  _DataDecrypt
                  0x02217c                  _DataEncrypt
                  0x0275bc                  _Delay
                  0x027542                  _Delay10us
                  0x027520                  _DelayMs
                  0x0275d2                  _Delay_Us
                  0x00fa40                  _DeleteRouteRecord
                  0x00599b                  _DeviceStartIndication
                  0x019982                  _DisplayForMeterFormattingAttributes
                  0x019c7a                  _DisplayGroupsClusterCommands
                  0x019ce8                  _DisplayScenesClusterCommands
                  0x01aa8c                  _Display_GetProfileResponse
                  0x01aa5e                  _Display_Message
                  0x01aac2                  _Display_PublishPrice_MTR
                  0x022e30                  _Display_Time
                  0x014202                  _DuplicatePacket
                  0x027580                  _EE_SPIGet
                  0x027570                  _EE_SPIPut
                  0x005ddc                  _ESP_AlarmAttributeDefaultValue
                  0x005d1c                  _ESP_BasicAttributeDefaultValue
                  0x005cfc                  _ESP_GroupsAttributeDefaultValue
                  0x005cfa                  _ESP_IdentifyAttributeDefaultValue
                  0x005dde                  _ESP_MeteringAttributeDefaultValue
                  0x005dba                  _ESP_PowerConfigurationAttributeDefaultValue
                  0x005d64                  _ESP_PriceAttributeDefaultValue
                  0x005dac                  _ESP_ScenesAttributeDefaultValue
                  0x005cfe                  _ESP_TimeAttributeDefaultValue
                  0x021d90                  _EncKeySchedule
                  0x022030                  _Encode
                  0x021e1e                  _EncodeShiftRow
                  0x020d58                  _EndDeviceLookupNodeByLongAddr
                  0x00ba8a                  _FindFreeRoutingTableEntry
                  0x00fdc2                  _FindMatch
                  0x020c22                  _FindMyChannel
                  0x00bc1e                  _FindNextHopAddress
                  0x020bb0                  _FindNumberofAddedMetersResponce
                  0x00fac8                  _FinishAddressResponses
                  0x014bf8                  _FormatTxBuffer
                  0x00ccea                  _GenerateNewShortAddr
                  0x02211e                  _GetActiveNetworkKey
                  0x010b10                  _GetActiveSAS
                  0x01f1be                  _GetAttributeDetails
                  0x01a4f6                  _GetClusterDefinition
                  0x010b7e                  _GetCurrentSAS
                  0x005938                  _GetDataFromMeter
                  0x00bd0a                  _GetDestFromRoutingTable
                  0x019b30                  _GetDisplayStateForMeterAttributes
                  0x0142d6                  _GetEmptyGroup
                  0x014296                  _GetEndPointsFromGroup
                  0x023960                  _GetFragmentDataBuffer
                  0x014ee0                  _GetGroupByIndex
                  0x00faa6                  _GetHashKey
                  0x0251b8                  _GetHexByte
                  0x00cfbc                  _GetIndexInRouteRecord
                  0x00d1ca                  _GetIndexToAddInRouteRecordTable
                  0x025ae6                  _GetMACByte
                  0x025b44                  _GetMACByteDec
                  0x00bda2                  _GetMulticastRoutingEntry
                  0x00bcac                  _GetNextHop
                  0x00fbfe                  _GetOneEndDeviceBindRequest
                  0x00be14                  _GetRoutingAddress
                  0x011204                  _GetTCLinkKeyInfo
                  0x01a4ce                  _Get_EmptySceneTableEntry
                  0x01a592                  _Get_SceneTableEntry
                  0x0201fa                  _HanddleMSDLClusterParameters
                  0x0203cc                  _HanddleUART2
                  0x020256                  _HanddleUART2Request
                  0x0236a8                  _HandleChkConnections
                  0x017d8c                  _HandleDiscoverRoute
                  0x01524e                  _HandleESPDefault
                  0x01af48                  _HandleESPDefault_MTR
                  0x02282c                  _HandleESPDisplay
                  0x015318                  _HandleESPtoMtr
                  0x023952                  _HandleFragmentDataConfirm
                  0x02408c                  _HandleFragmentDataIndication
                  0x0144b2                  _HandleFragmentDataRequest
                  0x022ac2                  _HandleMeterDisplay
                  0x017894                  _HandleMettringClusterMenuOptions
                  0x017c40                  _HandleNetworkInformation
                  0x025ba2                  _HandleUARTRequests
                  0x019bc8                  _Handle_Fragmented_MessageCluster
                  0x01a60a                  _Handle_StoreAndRecallSceneCmd
                  0x027272                  _HardwareInit
                  0x00be90                  _HaveRoutingCapacity
                  0x00d98e                  _InitNVMWithDefaultValues
                  0x021d14                  _InitSecurityKey
                  0x0275e8                  _InitSymbolTimer
                  0x025d7a                  _Init_LCD
                  0x01a55c                  _Init_ScenesTable
                  0x010882                  _Initdefault_SAS
                  0x00bf28                  _InitiateRouteDiscovery
                  0x010ff2                  _InitiateStartup
                  0x00cd0a                  _IsThereAddressConflict
                  0x00c4f6                  _IsThisAddressKnown
                  0x00c58e                  _IsThisLongAddressKnown
                  0x00fbcc                  _IsThisMyShortAddr
                  0x010f98                  _JoinRequest
                  0x0224f8                  _KeyDerivationFunction
                  0x00d3b8                  _LoadBackUpDataToTxBuffer
                  0x013e68                  _LookupAPSAddress
                  0x013f0e                  _LookupAPSLongAddress
                  0x013f4e                  _LookupSourceBindingInfo
                  0x01c82c                  _MACDisable
                  0x01c820                  _MACDiscardRx
                  0x01c83c                  _MACEnable
                  0x01c810                  _MACGet
                  0x01c806                  _MACHasBackgroundTasks
                  0x01c898                  _MACInit
                  0x01c8d0                  _MACTasks
                  0x0062b4                  _MICTable
                  0x01e12a                  _MLME_SET_macPANId_hw
                  0x01e140                  _MLME_SET_macShortAddress_hw
                  0x00c2f0                  _MarkNeighborAsPasssiveACKed
                  0x024a88                  _MemReverseCopy
                  0x006008                  _Meter_AlarmAttributeDefaultValue
                  0x005e98                  _Meter_BasicAttributeDefaultValue
                  0x005f88                  _Meter_CommissioningAttributeDefaultValues
                  0x005e88                  _Meter_GroupsAttributeDefaultValue
                  0x005e86                  _Meter_IdentifyAttributeDefaultValue
                  0x005ee0                  _Meter_MeteringAttributeDefaultValue
                  0x005fe6                  _Meter_PowerConfigurationAttributeDefaultValue
                  0x005e8a                  _Meter_ScenesAttributeDefaultValue
                  0x011408                  _MyAskForDeviceAddress
                  0x005954                  _MyChannelNumberCommand
                  0x00595a                  _MyChannelNumberResponce
                  0x00595f                  _MyRouteRequest
                  0x01144a                  _MySendAddressRequest
                  0x00c336                  _NLME_GET_nwkBCSN
                  0x02466e                  _NVMInit
                  0x02490c                  _NVMRead
                  0x02497e                  _NVMWrite
                  0x024a72                  _NVMalloc
                  0x00c348                  _NWKClearNeighborTable
                  0x00c3c2                  _NWKClearRoutingTable
                  0x00c7ea                  _NWKFindRandomNeighbor
                  0x00c3f8                  _NWKGet
                  0x006b0e                  _NWKHasBackgroundTasks
                  0x006b1c                  _NWKInit
                  0x00c720                  _NWKLookupNodeByExtendedPANId
                  0x00c6d4                  _NWKLookupNodeByLongAddr
                  0x00c7a4                  _NWKLookupNodeByRxOffDeviceShortAddrVal
                  0x00c766                  _NWKLookupNodeByShortAddrVal
                  0x00c842                  _NWKLookupNodeByShortAddrValAndPANID
                  0x006bf2                  _NWKTasks
                  0x00c88c                  _NWKThisIsMyLongAddress
                  0x00c8b6                  _NWKTidyNeighborTable
                  0x00596b                  _NetworkStartCommand
                  0x0059a6                  _NetworkStartCommandResponse
                  0x005965                  _NetworkStatusCommand
                  0x005971                  _NetworkStopCommand
                  0x0059ac                  _NetworkStopCommandResponse
                  0x005949                  _NumberOfAddedMetersCommand
                  0x00594f                  _NumberofAddedMeterResponce
                  0x02414c                  _PHYGet
                  0x02441a                  _PHYGetLongRAMAddr
                  0x0243dc                  _PHYGetShortRAMAddr
                  0x02415c                  _PHYHasBackgroundTasks
                  0x024162                  _PHYInit
                  0x024344                  _PHYSetLongRAMAddr
                  0x024466                  _PHYSetOutputPower
                  0x02438c                  _PHYSetShortRAMAddr
                  0x02427e                  _PHYTasks
                  0x010004                  _PrepareMessageResponse
                  0x00d44a                  _PrepareNetworkReportCmdFrame
                  0x00d4ca                  _PrepareNetworkUpdateCmdFrame
                  0x00ce28                  _PrepareNwkStatusCmdBroadcast
                  0x00cdb6                  _PrepareUnsolicitedRejoinRsp
                  0x00c930                  _Prepare_MCPS_DATA_request
                  0x024e96                  _PrintChar
                  0x017844                  _PrintMenu_ESP
                  0x01c7c8                  _PrintMenu_MTR
                  0x010558                  _ProcessBindAndUnbind
                  0x01af18                  _ProcessButtonPress
                  0x00fcde                  _ProcessEndDeviceBind
                  0x014f52                  _ProcessMenu_ESP
                  0x01abba                  _ProcessMenu_MTR
                  0x027566                  _RF_SPIGet
                  0x027556                  _RF_SPIPut
                  0x0263ca                  _RTCCCalculateWeekDay
                  0x0262c2                  _RTCCInit
                  0x02628e                  _RTCCProcessEvents
                  0x026308                  _RTCCSet
                  0x02641c                  _RTCCSetBinDay
                  0x0263a4                  _RTCCSetBinHour
                  0x02637a                  _RTCCSetBinMin
                  0x02646e                  _RTCCSetBinMonth
                  0x026350                  _RTCCSetBinSec
                  0x026494                  _RTCCSetBinYear
                  0x02633e                  _RTCCUnlock
                  0x013fce                  _RemoveAllBindings
                  0x014450                  _RemoveAllGroups
                  0x023b36                  _RemoveAppLinkKey
                  0x014398                  _RemoveGroup
                  0x00c98a                  _RemoveNeighborTableEntry
                  0x00c9d4                  _RemoveRoutingTableEntry
                  0x00cac2                  _RequestedPANIDFound
                  0x010c6e                  _ResetAllSAStablevalidity
                  0x0275a4                  _ResetMemoryCount
                  0x010d38                  _ResetSAS
                  0x010c2e                  _ResetSAStablevalidity
                  0x010e36                  _ResolveLocalAddressConflict
                  0x010b82                  _RestartDevice
                  0x00d892                  _RestorePersistencePIB
                  0x010c00                  _RestoreSAS
                  0x01893e                  _SE_CheckToSendReportAttributeCommand
                  0x0185a8                  _SE_CreateGetAlarmResponse
                  0x018bf4                  _SE_GetAttributeIndex
                  0x018212                  _SE_GetClusterSpecificSecurity
                  0x01f522                  _SE_HandleEvents_ESP
                  0x020ed2                  _SE_HandleEvents_MTR
                  0x019604                  _SE_HandleIdentifyTimeout
                  0x01962e                  _SE_SendCommissioningClusterResponse
                  0x018174                  _SE_SendDefaultResponse
                  0x019860                  _SE_SendNLMELeaveRequest
                  0x0189c2                  _SE_SendReportAttributeCommand
                  0x0183be                  _SE_UpdateAlarmTable
                  0x018b4e                  _SE_UpdateReportReceived
                  0x01951e                  _SE_ValidateSAS
                  0x0275b6                  _SRAMInitHeap
                  0x02758a                  _SRAMalloc
                  0x0275ac                  _SRAMfree
                  0x0062cf                  _STable
                  0x010db2                  _SaveCurrentSAS
                  0x010be6                  _SaveSAS
                  0x01a86c                  _Scenes_UpdateSceneValidFields
                  0x014b68                  _SearchForLinkKey
                  0x014d58                  _SearchForTCLinkKey
                  0x023b8a                  _SelectLinkKey
                  0x0239f6                  _SendAPPLRequest
                  0x020b58                  _SendAddMeterCommandResponce
                  0x01079e                  _SendBindAddressRequest
                  0x00fe54                  _SendBindOrUnbind
                  0x020a62                  _SendExtPANIdResponse
                  0x020b2a                  _SendModuleNetworkSetCommandResponse
                  0x020b08                  _SendModuleStartData
                  0x010822                  _SendUpBindResult
                  0x023966                  _SendZDPRequest
                  0x00ffd8                  _Send_END_DEVICE_BIND_rsp
                  0x010c80                  _SetActiveIndex
                  0x021f40                  _SetAi
                  0x023ab6                  _SetAppLinkKey
                  0x00cb06                  _SetBeaconPayload
                  0x00d95c                  _SetMulticastParams
                  0x005995                  _SetNetworkChannelMaskCommand
                  0x0059d2                  _SetNetworkChannelMaskResponce
                  0x00598f                  _SetNetworkDefaultESPCommand
                  0x0059cc                  _SetNetworkDefaultESPCommandResponse
                  0x005983                  _SetNetworkDeviceTypeCommand
                  0x0059bf                  _SetNetworkDeviceTypeCommandResponse
                  0x005977                  _SetNetworkExtendedPANIdCommand
                  0x0059b3                  _SetNetworkExtendedPANIdCommandResponse
                  0x00597d                  _SetNetworkLinkKeyCommand
                  0x0059b9                  _SetNetworkLinkKeyCommandResponse
                  0x005989                  _SetNetworkResetCommand
                  0x0059c5                  _SetNetworkResetCommandResponse
                  0x010e14                  _SetNextChildAddr
                  0x010e6a                  _SetOwnShortAddr
                  0x0113fa                  _SetPANId
                  0x021caa                  _SetSecurityKey
                  0x0111aa                  _SetTCLinkKeyInfo
                  0x022086                  _SoftwareCCM_Decrypt
                  0x0220f4                  _SoftwareCCM_Encrypt
                  0x00d810                  _StorePersistancePIB
                  0x00d160                  _StoreRouteRecord
                  0x0264ce                  _StubAPSHasBackgroundTasks
                  0x0264d2                  _StubAPSInit
                  0x0264d4                  _StubAPSTasks
                  0x0062ac                  _SwitchTable
                  0x027608                  _TickGet
                  0x0275f0                  _TickGetDiff
                  0x0201c4                  _TimeOutTime
                  0x01983c                  _Time_Synchronization
                  0x014ccc                  _TunnelTransportKey
                  0x0144a2                  _UpdateFragmentParams
                  0x01124c                  _UpdateTCLinkKey
                  0x01a5bc                  _Update_AndGetSceneCount
                  0x01aa52                  _Update_LastConfiguredByAttr
                  0x01a924                  _Update_sceneExtnWithCurrentAttrb
                  0x00cb58                  _VariableAndTableInitialization
                  0x014f0c                  _VerifyGroupAddrAndEndPoint
                  0x00d7f4                  _VerifyNetworkManager
                  0x01a49c                  _VerifySceneTableEntry
                  0x0186ae                  _ZCL_Callback_AddEntryIntoReportingTable
                  0x018238                  _ZCL_Callback_CheckForAlarmCondition
                  0x019042                  _ZCL_Callback_GetAttributeValue
                  0x01907a                  _ZCL_Callback_GetClusterIndex
                  0x018f64                  _ZCL_Callback_GetCurrentTimeInSeconds
                  0x019b56                  _ZCL_Callback_Get_IdentifyTime
                  0x019d1a                  _ZCL_Callback_HandleGroupCmds
                  0x01a076                  _ZCL_Callback_HandleSceneCmds
                  0x0240ca                  _ZCL_Callback_HandleTimeAttributes
                  0x018232                  _ZCL_Callback_IsDeviceInIdentifyMode
                  0x019060                  _ZCL_Callback_PutAttributeValue
                  0x019b52                  _ZCL_Callback_Put_IdentifyTime
                  0x018c6c                  _ZCL_Callback_ValidateAndCreateReadReportRsp
                  0x027374                  _ZCL_CheckTimeAttribute
                  0x01ec5e                  _ZCL_CreateConfigureReportingResponseCommand
                  0x01e798                  _ZCL_CreateDefaultResponseCommand
                  0x01efac                  _ZCL_CreateDiscoverAttributesResponseCommand
                  0x026dae                  _ZCL_CreateDisplayMessageCommand
                  0x01e8e2                  _ZCL_CreateHeader
                  0x01e98a                  _ZCL_CreateReadAttributeRespCmd
                  0x01ef0c                  _ZCL_CreateReadReportingConfigurationResponseCommand
                  0x0267fa                  _ZCL_CreateReportEventStatusCommand
                  0x01ebda                  _ZCL_CreateWriteAttributeRespCmd
                  0x02684e                  _ZCL_DRLC_CreateLoadControlEventCmd
                  0x01e576                  _ZCL_GetDataLengthForAttributeDataType
                  0x026882                  _ZCL_HandleAlarmClusterCommand
                  0x0274be                  _ZCL_HandleBasicClusterCommand
                  0x027432                  _ZCL_HandleCommissioningClusterCommand
                  0x0266dc                  _ZCL_HandleDRLCClusterCommand
                  0x027162                  _ZCL_HandleGroupsClusterCommand
                  0x027046                  _ZCL_HandleIdentifyClusterCommand
                  0x026cac                  _ZCL_HandleMessageClusterCommand
                  0x0269f2                  _ZCL_HandleMeteringClusterCommand
                  0x027610                  _ZCL_HandlePowerConfigurationClusterCommand
                  0x026b52                  _ZCL_HandlePriceClusterCommand
                  0x026e06                  _ZCL_HandleScenesClusterCommand
                  0x027418                  _ZCL_HandleTimeClusterCommand
                  0x026d58                  _ZCL_Message_CreateMessageConfirmation
                  0x0069cc                  _ZCL_PriceAttributeServerInfo
                  0x026c20                  _ZCL_Price_CreatePublishPriceCmd
                  0x01e5e0                  _ZCL_ProcessReceivedFrame
                  0x00696c                  _ZCL_TimeAttributeServerInfo
                  0x027352                  _ZCL_Time_SetTimeAttribute
                  0x025a40                  _ZCL_Utility_GetMaxPayloadLength
                  0x025a74                  _ZCL_Utility_Is_Client_Time_Cluster_Supported
                  0x0258fe                  _ZCL_Utility_Time_ConvertSecondsToYear
                  0x0257fa                  _ZCL_Utility_Time_ConvertYearToSeconds
                  0x01e81a                  _ZCL_ValidateIncomingFrame
                  0x0112c8                  _ZDOChangeNetworkManager
                  0x00da84                  _ZDOHasBackgroundTasks
                  0x00da90                  _ZDOInit
                  0x011294                  _ZDOSwitchChannel
                  0x00dade                  _ZDOTasks
                  0x02600e                  _ZigBeeInit
                  0x026050                  _ZigBeeTasks
                  0x02731e                  __AddressError
                  0x0002d4                  __DefaultInterrupt
                  0x02446e                  __INT1Interrupt
                  0x026f28                  __U1RXInterrupt
                  0x026f7a                  __U1TXInterrupt
                  0x000680                  ___addsf3
                  0x00051c                  ___divdi3
                  0x0007a6                  ___fixunssfsi
                  0x000628                  ___floatsisf
                  0x00073a                  ___gesf2
                  0x00073a                  ___gtsf2
                  0x000556                  ___moddi3
                  0x0003b6                  ___muldi3
                  0x00073e                  ___mulsf3
                  0x00067e                  ___subsf3
                  0x000506                  ___udivdi3
                  0x000438                  ___udivmoddi3
                  0x000396                  ___udivsi3
                  0x000514                  ___umoddi3
                  0x000390                  ___umodsi3
                  0x0007dc                  ___umuldi3
                  0x000232                  __data_init
                  0x000232                  __data_init_standard
                  0x00087c                  __fPropagateNaN
                  0x00088e                  __fbopExit
                  0x000896                  __fbopReturnNaN
                  0x00089c                  __fcompare
                  0x000820                  __fpack
                  0x0008d2                  __funpack
                  0x00086c                  __funpack2
                  0x000222                  __psv_init
                  0x000200                  __resetPRI
                  0x000ad6                  __sprintf_cdnopuxX
                  0x000b04                  __vfprintf_cdnopuxX
                  0x006830                  _aGenericCommandFuncPointerLookUpTable
                  0x001b02                  _alarmClusterMenu_ESP
                  0x0048de                  _alarmClusterMenu_MTR
                  0x001686                  _basicClusterMenu_ESP
                  0x004614                  _basicClusterMenu_MTR
                  0x00cc72                  _clearNWKKEy
                  0x0017ba                  _commissioningClusterMenu
                  0x0062bc                  _defaultMasterKey
                  0x001a58                  _displayMenu_ESP
                  0x004834                  _displayMenu_MTR
                  0x022ee8                  _display_Byte
                  0x001980                  _drlcClusterMenu
                  0x0062cc                  _flagTable
                  0x001dae                  _fragmentationMenu_ESP
                  0x004b8a                  _fragmentationMenu_MTR
                  0x000a20                  _free
                  0x00162c                  _genericCommandsMenu_ESP
                  0x0045ba                  _genericCommandsMenu_MTR
                  0x001bfa                  _groupsClusterMenu_ESP
                  0x0049d6                  _groupsClusterMenu_MTR
                  0x010070                  _handleActiveEPReq
                  0x0266b4                  _handleInterPanDataConf
                  0x026636                  _handleInterPanDataInd
                  0x0100c0                  _handleLQIReq
                  0x01037e                  _handleMatchDescReq
                  0x010236                  _handleRTGReq
                  0x0016f2                  _identifyClusterMenu_ESP
                  0x004680                  _identifyClusterMenu_MTR
                  0x014c62                  _initAPPLinkKeyTable
                  0x0201a6                  _initMSDCLTimers
                  0x001a1a                  _interPANMenu_ESP
                  0x0047f6                  _interPANMenu_MTR
                  0x025f32                  _lcdClear
                  0x026000                  _lcdDelay
                  0x025dfc                  _lcdInit
                  0x025eca                  _lcdPutChar
                  0x025f28                  _lcdPutCur
                  0x025ff4                  _lcdPutSCmd
                  0x025f12                  _lcdPutStr
                  0x025f38                  _lcdPutUInt
                  0x025e7e                  _lcd_cmd
                  0x025ea0                  _lcd_data
                  0x024aa6                  _main
                  0x0235d2                  _main_ESP
                  0x023bc2                  _main_MTR
                  0x0008fc                  _malloc
                  0x000a94                  _memcmp
                  0x000ac8                  _memcpy
                  0x000a86                  _memset
                  0x00140a                  _menu_ESP
                  0x0043f4                  _menu_MTR
                  0x00182c                  _messageClusterMenu
                  0x001884                  _meteringClusterMenu_ESP
                  0x0046f2                  _meteringClusterMenu_MTR
                  0x006afe                  _monthDaysTable
                  0x0018d2                  _priceClusterMenu_ESP
                  0x00476a                  _priceClusterMenu_MTR
                  0x025792                  _put2_dump
                  0x01fd40                  _putPhysicalEnvironment
                  0x025150                  _put_dump
                  0x025ef4                  _puts_lcd
                  0x000a2c                  _realloc
                  0x006ade                  _releaseVersionNumber
                  0x001d2c                  _scenesClusterMenu_ESP
                  0x004b08                  _scenesClusterMenu_MTR
                  0x01fd76                  _setDRLCTable
                  0x00155e                  _settingsMenu_ESP
                  0x0044ec                  _settingsMenu_MTR
                  0x0065f6                  _timeToAdd
                  0x026fbe                  _uart_get
                  0x02700e                  _uart_init
                  0x02703c                  _uart_kbhit
                  0x026fe2                  _uart_put
                  0x026fba                  _uart_test
                  0x010dee                  _updateCommissioningParameters
                  0x010de4                  _updateCurrentSAS
                  0x02550a                  _x2atoi
                  0x025606                  _x2itoa
                  0x0256c4                  _x2printf
                  0x0255ea                  _x2putc
                  0x0255f0                  _x2puts
                  0x024eba                  _xatoi
                  0x024fc4                  _xitoa
                  0x025082                  _xprintf
                  0x024f9a                  _xputc
                  0x024fae                  _xputs
                  0x006ab2                  _zcl_AlarmAttributeServerInfo
                  0x006ac6                  _zcl_AlarmClusterClientDefinition
                  0x006ac0                  _zcl_AlarmClusterClientInfo
                  0x006abc                  _zcl_AlarmClusterServerDefinition
                  0x006ab6                  _zcl_AlarmClusterServerInfo
                  0x0068e6                  _zcl_BasicAttributeServerInfo
                  0x006926                  _zcl_BasicClusterClientDefinition
                  0x006920                  _zcl_BasicClusterClientInfo
                  0x00691c                  _zcl_BasicClusterServerDefinition
                  0x006916                  _zcl_BasicClusterServerInfo
                  0x0067bc                  _zcl_CommissioningAttributeServerInfo
                  0x00682c                  _zcl_CommissioningClusterClientDefinition
                  0x006826                  _zcl_CommissioningClusterClientInfo
                  0x006822                  _zcl_CommissioningClusterServerDefinition
                  0x00681c                  _zcl_CommissioningClusterServerInfo
                  0x006a02                  _zcl_DRLCAttributeClientInfo
                  0x006a18                  _zcl_DRLCClusterClientDefinition
                  0x006a12                  _zcl_DRLCClusterClientInfo
                  0x0069fe                  _zcl_DRLCClusterServerDefinition
                  0x0069f8                  _zcl_DRLCClusterServerInfo
                  0x006a82                  _zcl_GroupsAttributeServerInfo
                  0x006a96                  _zcl_GroupsClusterClientDefinition
                  0x006a90                  _zcl_GroupsClusterClientInfo
                  0x006a8c                  _zcl_GroupsClusterServerDefinition
                  0x006a86                  _zcl_GroupsClusterServerInfo
                  0x006a9a                  _zcl_IdentifyAttributeServerInfo
                  0x006aae                  _zcl_IdentifyClusterClientDefinition
                  0x006aa8                  _zcl_IdentifyClusterClientInfo
                  0x006aa4                  _zcl_IdentifyClusterServerDefinition
                  0x006a9e                  _zcl_IdentifyClusterServerInfo
                  0x006ada                  _zcl_MessageClusterClientDefinition
                  0x006ad4                  _zcl_MessageClusterClientInfo
                  0x006ad0                  _zcl_MessageClusterServerDefinition
                  0x006aca                  _zcl_MessageClusterServerInfo
                  0x0063d0                  _zcl_MeteringAttributeServerInfo
                  0x006490                  _zcl_MeteringClusterClientDefinition
                  0x00648a                  _zcl_MeteringClusterClientInfo
                  0x006486                  _zcl_MeteringClusterServerDefinition
                  0x006480                  _zcl_MeteringClusterServerInfo
                  0x00689a                  _zcl_PowerConfigurationAttributeServerInfo
                  0x0068e2                  _zcl_PowerConfigurationClusterClientDefinition
                  0x0068dc                  _zcl_PowerConfigurationClusterClientInfo
                  0x0068d8                  _zcl_PowerConfigurationClusterServerDefinition
                  0x0068d2                  _zcl_PowerConfigurationClusterServerInfo
                  0x0069f4                  _zcl_PriceClusterClientDefinition
                  0x0069ee                  _zcl_PriceClusterClientInfo
                  0x0069ea                  _zcl_PriceClusterServerDefinition
                  0x0069e4                  _zcl_PriceClusterServerInfo
                  0x0069a0                  _zcl_ScenesAttributeServerInfo
                  0x0069c8                  _zcl_ScenesClusterClientDefinition
                  0x0069c2                  _zcl_ScenesClusterClientInfo
                  0x0069be                  _zcl_ScenesClusterServerDefinition
                  0x0069b8                  _zcl_ScenesClusterServerInfo
                  0x00699c                  _zcl_TimeClusterClientDefinition
                  0x006996                  _zcl_TimeClusterClientInfo
                  0x006992                  _zcl_TimeClusterServerDefinition
                  0x00698c                  _zcl_TimeClusterServerInfo

Memory Configuration

Name             Origin             Length             Attributes
data             0x000800           0x004000           a !xr
reset            0x000000           0x000004  
ivt              0x000004           0x0000fc  
_reserved        0x000100           0x000004  
aivt             0x000104           0x0000fc  
program          0x000200           0x02a9f6           xr
CONFIG3          0x02abfa           0x000002  
CONFIG2          0x02abfc           0x000002  
CONFIG1          0x02abfe           0x000002  
*default*        0x000000           0xffffffff  

Linker script and memory map

LOAD Objects\PIC24_256\SE_CBKE.o
LOAD Objects\PIC24_256\rtcc.o
LOAD Objects\PIC24_256\sralloc.o
LOAD Objects\PIC24_256\Console.o
LOAD Objects\PIC24_256\HAL.o
LOAD Objects\PIC24_256\MSPI.o
LOAD Objects\PIC24_256\SE_Display.o
LOAD Objects\PIC24_256\SE_Profile.o
LOAD Objects\PIC24_256\SymbolTime.o
LOAD Objects\PIC24_256\zAIL.o
LOAD Objects\PIC24_256\zAPS.o
LOAD Objects\PIC24_256\ZigbeeTasks.o
LOAD Objects\PIC24_256\zMAC_MRF24J40.o
LOAD Objects\PIC24_256\zNVM.o
LOAD Objects\PIC24_256\zNWK.o
LOAD Objects\PIC24_256\zPHY_MRF24J40.o
LOAD Objects\PIC24_256\zSecurity_MRF24J40.o
LOAD Objects\PIC24_256\zStub_APS.o
LOAD Objects\PIC24_256\zZDO.o
LOAD Objects\PIC24_256\App_Common.o
LOAD Objects\PIC24_256\App_MTR.o
LOAD Objects\PIC24_256\SE_MTR.o
LOAD Objects\PIC24_256\merge_main.o
LOAD Objects\PIC24_256\Menu_MTR.o
LOAD Objects\PIC24_256\SE_Certificate_MTR.o
LOAD Objects\PIC24_256\myZigBee_ESP.o
LOAD Objects\PIC24_256\App_ESP.o
LOAD Objects\PIC24_256\Menu_ESP.o
LOAD Objects\PIC24_256\SE_ESP.o
LOAD Objects\PIC24_256\myZigBee_MTR.o
LOAD Objects\PIC24_256\SE_Certificate_ESP.o
LOAD Objects\PIC24_256\msdlclusterhanddle.o
LOAD Objects\PIC24_256\monitor.o
LOAD Objects\PIC24_256\comm.o
LOAD Objects\PIC24_256\Delay.o
LOAD Objects\PIC24_256\Log.o
LOAD E:\Dropbox\MyWork\SEPV1.1\Source\CMRI\SEP Progressive merge MTR Merge\Source\Common\Lib\TLS2130.a
LOAD E:\Dropbox\MyWork\SEPV1.1\Source\CMRI\SEP Progressive merge MTR Merge\Source\Common\Lib\ZCL24bitLib.a
LOAD E:\Dropbox\MyWork\SEPV1.1\Source\CMRI\SEP Progressive merge MTR Merge\Source\Common\Lib\lib24ecc.a
LOAD c:/program files/microchip/mplabc30/v3.31/bin/bin/../../lib/PIC24F\libpPIC24Fxxx-coff.a
                    0x2abfa                  __CONFIG3 = 0x2abfa
                    0x2abfc                  __CONFIG2 = 0x2abfc
                    0x2abfe                  __CONFIG1 = 0x2abfe
                    0x0004                  __IVT_BASE = 0x4
                    0x0104                  __AIVT_BASE = 0x104
                    0x0800                  __DATA_BASE = 0x800
                    0x4000                  __DATA_LENGTH = 0x4000
                    0x0200                  __CODE_BASE = 0x200
                    0x2a9f8                  __CODE_LENGTH = 0x2a9f8

.reset            0x000000          0x4
                  0x000000          0x2 SHORT 0x200 ABSOLUTE (__reset)
                  0x000001          0x2 SHORT 0x4
                  0x000002          0x2 SHORT 0x0 ((ABSOLUTE (__reset) >> 0x10) & 0x7f)
                  0x000003          0x2 SHORT 0x0

.text             0x000200        0xf82
 *(.init)
 .init            0x000200         0x32 c:/program files/microchip/mplabc30/v3.31/bin/bin/../../lib\libpic30-coff.a(crt0_standard.o)
                  0x000200                  _resetPRI
                  0x000200                  _reset
                  0x000222                  _psv_init
 .init            0x000232         0x5e c:/program files/microchip/mplabc30/v3.31/bin/bin/../../lib\libpic30-coff.a(data_init_standard.o)
                  0x000232                  _data_init_standard
                  0x000232                  _data_init
 *(.user_init)
 *(.handle)
 .handle          0x000290         0x44 jump_table
 *(.isr*)
 .isr             0x0002d4          0x4 default_isr
                  0x0002d4                  _DefaultInterrupt
 *(.libc)
 .libc            0x0002d8         0x2c c:/program files/microchip/mplabc30/v3.31/bin/bin/../../lib\libpic30-coff.a(sbrk.o)
                  0x0002d8                  sbrk
 .libc            0x000304         0x6e c:/program files/microchip/mplabc30/v3.31/bin/bin/../../lib\libpic30-coff.a(write.o)
                  0x000304                  write
 .libc            0x000372         0x1e c:/program files/microchip/mplabc30/v3.31/bin/bin/../../lib\libpic30-coff.a(brk.o)
                  0x000372                  brk
 *(.libm)
 .libm            0x000390          0x6 c:/program files/microchip/mplabc30/v3.31/bin/bin/../../lib\libm-coff.a(umodsi3.o)
                  0x000390                  __umodsi3
 .libm            0x000396         0x20 c:/program files/microchip/mplabc30/v3.31/bin/bin/../../lib\libm-coff.a(udivsi3.o)
                  0x000396                  __udivsi3
 .libm            0x0003b6         0x5c c:/program files/microchip/mplabc30/v3.31/bin/bin/../../lib\libm-coff.a(muldi3.o)
                  0x0003b6                  __muldi3
 .libm            0x000412        0x216 c:/program files/microchip/mplabc30/v3.31/bin/bin/../../lib\libm-coff.a(divmoddi3.o)
                  0x000438                  __udivmoddi3
                  0x000506                  __udivdi3
                  0x000514                  __umoddi3
                  0x00051c                  __divdi3
                  0x000556                  __moddi3
 .libm            0x000628         0x56 c:/program files/microchip/mplabc30/v3.31/bin/bin/../../lib\libm-coff.a(floatsisf.o)
                  0x000628                  __floatsisf
 .libm            0x00067e         0xbc c:/program files/microchip/mplabc30/v3.31/bin/bin/../../lib\libm-coff.a(addsf3.o)
                  0x00067e                  __subsf3
                  0x000680                  __addsf3
 .libm            0x00073a          0x4 c:/program files/microchip/mplabc30/v3.31/bin/bin/../../lib\libm-coff.a(fgtge.o)
                  0x00073a                  __gesf2
                  0x00073a                  __gtsf2
 .libm            0x00073e         0x68 c:/program files/microchip/mplabc30/v3.31/bin/bin/../../lib\libm-coff.a(mulsf3.o)
                  0x00073e                  __mulsf3
 .libm            0x0007a6         0x36 c:/program files/microchip/mplabc30/v3.31/bin/bin/../../lib\libm-coff.a(fixunssfsi.o)
                  0x0007a6                  __fixunssfsi
 .libm            0x0007dc         0x44 c:/program files/microchip/mplabc30/v3.31/bin/bin/../../lib\libm-coff.a(umuldi3.o)
                  0x0007dc                  __umuldi3
 .libm            0x000820         0x4c c:/program files/microchip/mplabc30/v3.31/bin/bin/../../lib\libm-coff.a(fpack.o)
                  0x000820                  _fpack
 .libm            0x00086c         0x10 c:/program files/microchip/mplabc30/v3.31/bin/bin/../../lib\libm-coff.a(funpack2.o)
                  0x00086c                  _funpack2
 .libm            0x00087c         0x20 c:/program files/microchip/mplabc30/v3.31/bin/bin/../../lib\libm-coff.a(futil.o)
                  0x00087c                  _fPropagateNaN
                  0x00088e                  _fbopExit
                  0x000896                  _fbopReturnNaN
 .libm            0x00089c         0x36 c:/program files/microchip/mplabc30/v3.31/bin/bin/../../lib\libm-coff.a(fcompare.o)
                  0x00089c                  _fcompare
 .libm            0x0008d2         0x2a c:/program files/microchip/mplabc30/v3.31/bin/bin/../../lib\libm-coff.a(funpack.o)
                  0x0008d2                  _funpack
 *(.libdsp)
 *(.lib*)
 .libc.malloc     0x0008fc        0x124 c:/program files/microchip/mplabc30/v3.31/bin/bin/../../lib\libc-coff.a(malloc.XXo)
                  0x0008fc                  malloc
 .libc.free       0x000a20          0xc c:/program files/microchip/mplabc30/v3.31/bin/bin/../../lib\libc-coff.a(malloc.XXo)
                  0x000a20                  free
 .libc.realloc    0x000a2c         0x5a c:/program files/microchip/mplabc30/v3.31/bin/bin/../../lib\libc-coff.a(malloc.XXo)
                  0x000a2c                  realloc
 .libc.memset     0x000a86          0xe c:/program files/microchip/mplabc30/v3.31/bin/bin/../../lib\libc-coff.a(memset.XXo)
                  0x000a86                  memset
 .libc.memcmp     0x000a94         0x34 c:/program files/microchip/mplabc30/v3.31/bin/bin/../../lib\libc-coff.a(memcmp.XXo)
                  0x000a94                  memcmp
 .libc.memcpy     0x000ac8          0xe c:/program files/microchip/mplabc30/v3.31/bin/bin/../../lib\libc-coff.a(memcpy.XXo)
                  0x000ac8                  memcpy
 .libc._sprintf_cdnopuxX
                  0x000ad6         0x2e c:/program files/microchip/mplabc30/v3.31/bin/bin/../../lib\libc-coff.a(sprintf_cdnopuxX.XXo)
                  0x000ad6                  _sprintf_cdnopuxX
 .libc._vfprintf_cdnopuxX
                  0x000b04        0x56a c:/program files/microchip/mplabc30/v3.31/bin/bin/../../lib\libc-coff.a(doprnt_cdnopuxX.XXo)
                  0x000b04                  _vfprintf_cdnopuxX
 .libc.fputc      0x00106e         0x8e c:/program files/microchip/mplabc30/v3.31/bin/bin/../../lib\libc-coff.a(fputc.XXo)
                  0x00106e                  fputc
 .libc._flsbuf    0x0010fc         0x86 c:/program files/microchip/mplabc30/v3.31/bin/bin/../../lib\libc-coff.a(flsbuf.XXo)
                  0x0010fc                  _flsbuf

usercode
 *(usercode)

__CONFIG3
 *(__CONFIG3.sec*)

__CONFIG2         0x02abfc          0x2
 *(__CONFIG2.sec*)
 __CONFIG2.sec    0x02abfc          0x2 Objects\PIC24_256\App_ESP.o

__CONFIG1         0x02abfe          0x2
 *(__CONFIG1.sec*)
 __CONFIG1.sec    0x02abfe          0x2 Objects\PIC24_256\App_ESP.o

.comment
 *(.comment)

.debug_info
 *(.debug_info)
 *(.gnu.linkonce.wi.*)

.debug_abbrev
 *(.debug_abbrev)

.debug_line
 *(.debug_line)

.debug_frame
 *(.debug_frame)

.debug_str
 *(.debug_str)

.debug_loc
 *(.debug_loc)

.debug_macinfo
 *(.debug_macinfo)

.debug_pubnames
 *(.debug_pubnames)

.debug_ranges
 *(.debug_ranges)

.debug_aranges
 *(.debug_aranges)

.ivt              0x000004         0xfc
                  0x000004          0x4 LONG 0x2d4 DEFINED (__ReservedTrap0)?ABSOLUTE (__ReservedTrap0):ABSOLUTE (__DefaultInterrupt)
                  0x000006          0x4 LONG 0x2d4 DEFINED (__OscillatorFail)?ABSOLUTE (__OscillatorFail):ABSOLUTE (__DefaultInterrupt)
                  0x000008          0x4 LONG 0x2731e DEFINED (__AddressError)?ABSOLUTE (__AddressError):ABSOLUTE (__DefaultInterrupt)
                  0x00000a          0x4 LONG 0x2d4 DEFINED (__StackError)?ABSOLUTE (__StackError):ABSOLUTE (__DefaultInterrupt)
                  0x00000c          0x4 LONG 0x2d4 DEFINED (__MathError)?ABSOLUTE (__MathError):ABSOLUTE (__DefaultInterrupt)
                  0x00000e          0x4 LONG 0x2d4 DEFINED (__ReservedTrap5)?ABSOLUTE (__ReservedTrap5):ABSOLUTE (__DefaultInterrupt)
                  0x000010          0x4 LONG 0x2d4 DEFINED (__ReservedTrap6)?ABSOLUTE (__ReservedTrap6):ABSOLUTE (__DefaultInterrupt)
                  0x000012          0x4 LONG 0x2d4 DEFINED (__ReservedTrap7)?ABSOLUTE (__ReservedTrap7):ABSOLUTE (__DefaultInterrupt)
                  0x000014          0x4 LONG 0x2d4 DEFINED (__INT0Interrupt)?ABSOLUTE (__INT0Interrupt):ABSOLUTE (__DefaultInterrupt)
                  0x000016          0x4 LONG 0x2d4 DEFINED (__IC1Interrupt)?ABSOLUTE (__IC1Interrupt):ABSOLUTE (__DefaultInterrupt)
                  0x000018          0x4 LONG 0x2d4 DEFINED (__OC1Interrupt)?ABSOLUTE (__OC1Interrupt):ABSOLUTE (__DefaultInterrupt)
                  0x00001a          0x4 LONG 0x2d4 DEFINED (__T1Interrupt)?ABSOLUTE (__T1Interrupt):ABSOLUTE (__DefaultInterrupt)
                  0x00001c          0x4 LONG 0x2d4 DEFINED (__Interrupt4)?ABSOLUTE (__Interrupt4):ABSOLUTE (__DefaultInterrupt)
                  0x00001e          0x4 LONG 0x2d4 DEFINED (__IC2Interrupt)?ABSOLUTE (__IC2Interrupt):ABSOLUTE (__DefaultInterrupt)
                  0x000020          0x4 LONG 0x2d4 DEFINED (__OC2Interrupt)?ABSOLUTE (__OC2Interrupt):ABSOLUTE (__DefaultInterrupt)
                  0x000022          0x4 LONG 0x2d4 DEFINED (__T2Interrupt)?ABSOLUTE (__T2Interrupt):ABSOLUTE (__DefaultInterrupt)
                  0x000024          0x4 LONG 0x2d4 DEFINED (__T3Interrupt)?ABSOLUTE (__T3Interrupt):ABSOLUTE (__DefaultInterrupt)
                  0x000026          0x4 LONG 0x2d4 DEFINED (__SPI1ErrInterrupt)?ABSOLUTE (__SPI1ErrInterrupt):ABSOLUTE (__DefaultInterrupt)
                  0x000028          0x4 LONG 0x2d4 DEFINED (__SPI1Interrupt)?ABSOLUTE (__SPI1Interrupt):ABSOLUTE (__DefaultInterrupt)
                  0x00002a          0x4 LONG 0x26f28 DEFINED (__U1RXInterrupt)?ABSOLUTE (__U1RXInterrupt):ABSOLUTE (__DefaultInterrupt)
                  0x00002c          0x4 LONG 0x26f7a DEFINED (__U1TXInterrupt)?ABSOLUTE (__U1TXInterrupt):ABSOLUTE (__DefaultInterrupt)
                  0x00002e          0x4 LONG 0x2d4 DEFINED (__ADC1Interrupt)?ABSOLUTE (__ADC1Interrupt):ABSOLUTE (__DefaultInterrupt)
                  0x000030          0x4 LONG 0x2d4 DEFINED (__Interrupt14)?ABSOLUTE (__Interrupt14):ABSOLUTE (__DefaultInterrupt)
                  0x000032          0x4 LONG 0x2d4 DEFINED (__Interrupt15)?ABSOLUTE (__Interrupt15):ABSOLUTE (__DefaultInterrupt)
                  0x000034          0x4 LONG 0x2d4 DEFINED (__SI2C1Interrupt)?ABSOLUTE (__SI2C1Interrupt):ABSOLUTE (__DefaultInterrupt)
                  0x000036          0x4 LONG 0x2d4 DEFINED (__MI2C1Interrupt)?ABSOLUTE (__MI2C1Interrupt):ABSOLUTE (__DefaultInterrupt)
                  0x000038          0x4 LONG 0x2d4 DEFINED (__CompInterrupt)?ABSOLUTE (__CompInterrupt):ABSOLUTE (__DefaultInterrupt)
                  0x00003a          0x4 LONG 0x2d4 DEFINED (__CNInterrupt)?ABSOLUTE (__CNInterrupt):ABSOLUTE (__DefaultInterrupt)
                  0x00003c          0x4 LONG 0x2446e DEFINED (__INT1Interrupt)?ABSOLUTE (__INT1Interrupt):ABSOLUTE (__DefaultInterrupt)
                  0x00003e          0x4 LONG 0x2d4 DEFINED (__Interrupt21)?ABSOLUTE (__Interrupt21):ABSOLUTE (__DefaultInterrupt)
                  0x000040          0x4 LONG 0x2d4 DEFINED (__IC7Interrupt)?ABSOLUTE (__IC7Interrupt):ABSOLUTE (__DefaultInterrupt)
                  0x000042          0x4 LONG 0x2d4 DEFINED (__IC8Interrupt)?ABSOLUTE (__IC8Interrupt):ABSOLUTE (__DefaultInterrupt)
                  0x000044          0x4 LONG 0x2d4 DEFINED (__Interrupt24)?ABSOLUTE (__Interrupt24):ABSOLUTE (__DefaultInterrupt)
                  0x000046          0x4 LONG 0x2d4 DEFINED (__OC3Interrupt)?ABSOLUTE (__OC3Interrupt):ABSOLUTE (__DefaultInterrupt)
                  0x000048          0x4 LONG 0x2d4 DEFINED (__OC4Interrupt)?ABSOLUTE (__OC4Interrupt):ABSOLUTE (__DefaultInterrupt)
                  0x00004a          0x4 LONG 0x2d4 DEFINED (__T4Interrupt)?ABSOLUTE (__T4Interrupt):ABSOLUTE (__DefaultInterrupt)
                  0x00004c          0x4 LONG 0x2d4 DEFINED (__T5Interrupt)?ABSOLUTE (__T5Interrupt):ABSOLUTE (__DefaultInterrupt)
                  0x00004e          0x4 LONG 0x2d4 DEFINED (__INT2Interrupt)?ABSOLUTE (__INT2Interrupt):ABSOLUTE (__DefaultInterrupt)
                  0x000050          0x4 LONG 0x2d4 DEFINED (__U2RXInterrupt)?ABSOLUTE (__U2RXInterrupt):ABSOLUTE (__DefaultInterrupt)
                  0x000052          0x4 LONG 0x2d4 DEFINED (__U2TXInterrupt)?ABSOLUTE (__U2TXInterrupt):ABSOLUTE (__DefaultInterrupt)
                  0x000054          0x4 LONG 0x2d4 DEFINED (__SPI2ErrInterrupt)?ABSOLUTE (__SPI2ErrInterrupt):ABSOLUTE (__DefaultInterrupt)
                  0x000056          0x4 LONG 0x2d4 DEFINED (__SPI2Interrupt)?ABSOLUTE (__SPI2Interrupt):ABSOLUTE (__DefaultInterrupt)
                  0x000058          0x4 LONG 0x2d4 DEFINED (__Interrupt34)?ABSOLUTE (__Interrupt34):ABSOLUTE (__DefaultInterrupt)
                  0x00005a          0x4 LONG 0x2d4 DEFINED (__Interrupt35)?ABSOLUTE (__Interrupt35):ABSOLUTE (__DefaultInterrupt)
                  0x00005c          0x4 LONG 0x2d4 DEFINED (__Interrupt36)?ABSOLUTE (__Interrupt36):ABSOLUTE (__DefaultInterrupt)
                  0x00005e          0x4 LONG 0x2d4 DEFINED (__IC3Interrupt)?ABSOLUTE (__IC3Interrupt):ABSOLUTE (__DefaultInterrupt)
                  0x000060          0x4 LONG 0x2d4 DEFINED (__IC4Interrupt)?ABSOLUTE (__IC4Interrupt):ABSOLUTE (__DefaultInterrupt)
                  0x000062          0x4 LONG 0x2d4 DEFINED (__IC5Interrupt)?ABSOLUTE (__IC5Interrupt):ABSOLUTE (__DefaultInterrupt)
                  0x000064          0x4 LONG 0x2d4 DEFINED (__IC6Interrupt)?ABSOLUTE (__IC6Interrupt):ABSOLUTE (__DefaultInterrupt)
                  0x000066          0x4 LONG 0x2d4 DEFINED (__OC5Interrupt)?ABSOLUTE (__OC5Interrupt):ABSOLUTE (__DefaultInterrupt)
                  0x000068          0x4 LONG 0x2d4 DEFINED (__OC6Interrupt)?ABSOLUTE (__OC6Interrupt):ABSOLUTE (__DefaultInterrupt)
                  0x00006a          0x4 LONG 0x2d4 DEFINED (__OC7Interrupt)?ABSOLUTE (__OC7Interrupt):ABSOLUTE (__DefaultInterrupt)
                  0x00006c          0x4 LONG 0x2d4 DEFINED (__OC8Interrupt)?ABSOLUTE (__OC8Interrupt):ABSOLUTE (__DefaultInterrupt)
                  0x00006e          0x4 LONG 0x2d4 DEFINED (__PMPInterrupt)?ABSOLUTE (__PMPInterrupt):ABSOLUTE (__DefaultInterrupt)
                  0x000070          0x4 LONG 0x2d4 DEFINED (__Interrupt46)?ABSOLUTE (__Interrupt46):ABSOLUTE (__DefaultInterrupt)
                  0x000072          0x4 LONG 0x2d4 DEFINED (__Interrupt47)?ABSOLUTE (__Interrupt47):ABSOLUTE (__DefaultInterrupt)
                  0x000074          0x4 LONG 0x2d4 DEFINED (__Interrupt48)?ABSOLUTE (__Interrupt48):ABSOLUTE (__DefaultInterrupt)
                  0x000076          0x4 LONG 0x2d4 DEFINED (__SI2C2Interrupt)?ABSOLUTE (__SI2C2Interrupt):ABSOLUTE (__DefaultInterrupt)
                  0x000078          0x4 LONG 0x2d4 DEFINED (__MI2C2Interrupt)?ABSOLUTE (__MI2C2Interrupt):ABSOLUTE (__DefaultInterrupt)
                  0x00007a          0x4 LONG 0x2d4 DEFINED (__Interrupt51)?ABSOLUTE (__Interrupt51):ABSOLUTE (__DefaultInterrupt)
                  0x00007c          0x4 LONG 0x2d4 DEFINED (__Interrupt52)?ABSOLUTE (__Interrupt52):ABSOLUTE (__DefaultInterrupt)
                  0x00007e          0x4 LONG 0x2d4 DEFINED (__INT3Interrupt)?ABSOLUTE (__INT3Interrupt):ABSOLUTE (__DefaultInterrupt)
                  0x000080          0x4 LONG 0x2d4 DEFINED (__INT4Interrupt)?ABSOLUTE (__INT4Interrupt):ABSOLUTE (__DefaultInterrupt)
                  0x000082          0x4 LONG 0x2d4 DEFINED (__Interrupt55)?ABSOLUTE (__Interrupt55):ABSOLUTE (__DefaultInterrupt)
                  0x000084          0x4 LONG 0x2d4 DEFINED (__Interrupt56)?ABSOLUTE (__Interrupt56):ABSOLUTE (__DefaultInterrupt)
                  0x000086          0x4 LONG 0x2d4 DEFINED (__Interrupt57)?ABSOLUTE (__Interrupt57):ABSOLUTE (__DefaultInterrupt)
                  0x000088          0x4 LONG 0x2d4 DEFINED (__Interrupt58)?ABSOLUTE (__Interrupt58):ABSOLUTE (__DefaultInterrupt)
                  0x00008a          0x4 LONG 0x2d4 DEFINED (__Interrupt59)?ABSOLUTE (__Interrupt59):ABSOLUTE (__DefaultInterrupt)
                  0x00008c          0x4 LONG 0x2d4 DEFINED (__Interrupt60)?ABSOLUTE (__Interrupt60):ABSOLUTE (__DefaultInterrupt)
                  0x00008e          0x4 LONG 0x2d4 DEFINED (__Interrupt61)?ABSOLUTE (__Interrupt61):ABSOLUTE (__DefaultInterrupt)
                  0x000090          0x4 LONG 0x2d4 DEFINED (__RTCCInterrupt)?ABSOLUTE (__RTCCInterrupt):ABSOLUTE (__DefaultInterrupt)
                  0x000092          0x4 LONG 0x2d4 DEFINED (__Interrupt63)?ABSOLUTE (__Interrupt63):ABSOLUTE (__DefaultInterrupt)
                  0x000094          0x4 LONG 0x2d4 DEFINED (__Interrupt64)?ABSOLUTE (__Interrupt64):ABSOLUTE (__DefaultInterrupt)
                  0x000096          0x4 LONG 0x2d4 DEFINED (__U1ErrInterrupt)?ABSOLUTE (__U1ErrInterrupt):ABSOLUTE (__DefaultInterrupt)
                  0x000098          0x4 LONG 0x2d4 DEFINED (__U2ErrInterrupt)?ABSOLUTE (__U2ErrInterrupt):ABSOLUTE (__DefaultInterrupt)
                  0x00009a          0x4 LONG 0x2d4 DEFINED (__CRCInterrupt)?ABSOLUTE (__CRCInterrupt):ABSOLUTE (__DefaultInterrupt)
                  0x00009c          0x4 LONG 0x2d4 DEFINED (__Interrupt68)?ABSOLUTE (__Interrupt68):ABSOLUTE (__DefaultInterrupt)
                  0x00009e          0x4 LONG 0x2d4 DEFINED (__Interrupt69)?ABSOLUTE (__Interrupt69):ABSOLUTE (__DefaultInterrupt)
                  0x0000a0          0x4 LONG 0x2d4 DEFINED (__Interrupt70)?ABSOLUTE (__Interrupt70):ABSOLUTE (__DefaultInterrupt)
                  0x0000a2          0x4 LONG 0x2d4 DEFINED (__Interrupt71)?ABSOLUTE (__Interrupt71):ABSOLUTE (__DefaultInterrupt)
                  0x0000a4          0x4 LONG 0x2d4 DEFINED (__LVDInterrupt)?ABSOLUTE (__LVDInterrupt):ABSOLUTE (__DefaultInterrupt)
                  0x0000a6          0x4 LONG 0x2d4 DEFINED (__Interrupt73)?ABSOLUTE (__Interrupt73):ABSOLUTE (__DefaultInterrupt)
                  0x0000a8          0x4 LONG 0x2d4 DEFINED (__Interrupt74)?ABSOLUTE (__Interrupt74):ABSOLUTE (__DefaultInterrupt)
                  0x0000aa          0x4 LONG 0x2d4 DEFINED (__Interrupt75)?ABSOLUTE (__Interrupt75):ABSOLUTE (__DefaultInterrupt)
                  0x0000ac          0x4 LONG 0x2d4 DEFINED (__Interrupt76)?ABSOLUTE (__Interrupt76):ABSOLUTE (__DefaultInterrupt)
                  0x0000ae          0x4 LONG 0x2d4 DEFINED (__CTMUInterrupt)?ABSOLUTE (__CTMUInterrupt):ABSOLUTE (__DefaultInterrupt)
                  0x0000b0          0x4 LONG 0x2d4 DEFINED (__Interrupt78)?ABSOLUTE (__Interrupt78):ABSOLUTE (__DefaultInterrupt)
                  0x0000b2          0x4 LONG 0x2d4 DEFINED (__Interrupt79)?ABSOLUTE (__Interrupt79):ABSOLUTE (__DefaultInterrupt)
                  0x0000b4          0x4 LONG 0x2d4 DEFINED (__Interrupt80)?ABSOLUTE (__Interrupt80):ABSOLUTE (__DefaultInterrupt)
                  0x0000b6          0x4 LONG 0x2d4 DEFINED (__U3ErrInterrupt)?ABSOLUTE (__U3ErrInterrupt):ABSOLUTE (__DefaultInterrupt)
                  0x0000b8          0x4 LONG 0x2d4 DEFINED (__U3RXInterrupt)?ABSOLUTE (__U3RXInterrupt):ABSOLUTE (__DefaultInterrupt)
                  0x0000ba          0x4 LONG 0x2d4 DEFINED (__U3TXInterrupt)?ABSOLUTE (__U3TXInterrupt):ABSOLUTE (__DefaultInterrupt)
                  0x0000bc          0x4 LONG 0x2d4 DEFINED (__SI2C3Interrupt)?ABSOLUTE (__SI2C3Interrupt):ABSOLUTE (__DefaultInterrupt)
                  0x0000be          0x4 LONG 0x2d4 DEFINED (__MI2C3Interrupt)?ABSOLUTE (__MI2C3Interrupt):ABSOLUTE (__DefaultInterrupt)
                  0x0000c0          0x4 LONG 0x2d4 DEFINED (__USB1Interrupt)?ABSOLUTE (__USB1Interrupt):ABSOLUTE (__DefaultInterrupt)
                  0x0000c2          0x4 LONG 0x2d4 DEFINED (__U4ErrInterrupt)?ABSOLUTE (__U4ErrInterrupt):ABSOLUTE (__DefaultInterrupt)
                  0x0000c4          0x4 LONG 0x2d4 DEFINED (__U4RXInterrupt)?ABSOLUTE (__U4RXInterrupt):ABSOLUTE (__DefaultInterrupt)
                  0x0000c6          0x4 LONG 0x2d4 DEFINED (__U4TXInterrupt)?ABSOLUTE (__U4TXInterrupt):ABSOLUTE (__DefaultInterrupt)
                  0x0000c8          0x4 LONG 0x2d4 DEFINED (__SPI3ErrInterrupt)?ABSOLUTE (__SPI3ErrInterrupt):ABSOLUTE (__DefaultInterrupt)
                  0x0000ca          0x4 LONG 0x2d4 DEFINED (__SPI3Interrupt)?ABSOLUTE (__SPI3Interrupt):ABSOLUTE (__DefaultInterrupt)
                  0x0000cc          0x4 LONG 0x2d4 DEFINED (__OC9Interrupt)?ABSOLUTE (__OC9Interrupt):ABSOLUTE (__DefaultInterrupt)
                  0x0000ce          0x4 LONG 0x2d4 DEFINED (__IC9Interrupt)?ABSOLUTE (__IC9Interrupt):ABSOLUTE (__DefaultInterrupt)
                  0x0000d0          0x4 LONG 0x2d4 DEFINED (__Interrupt94)?ABSOLUTE (__Interrupt94):ABSOLUTE (__DefaultInterrupt)
                  0x0000d2          0x4 LONG 0x2d4 DEFINED (__Interrupt95)?ABSOLUTE (__Interrupt95):ABSOLUTE (__DefaultInterrupt)
                  0x0000d4          0x4 LONG 0x2d4 DEFINED (__Interrupt96)?ABSOLUTE (__Interrupt96):ABSOLUTE (__DefaultInterrupt)
                  0x0000d6          0x4 LONG 0x2d4 DEFINED (__Interrupt97)?ABSOLUTE (__Interrupt97):ABSOLUTE (__DefaultInterrupt)
                  0x0000d8          0x4 LONG 0x2d4 DEFINED (__Interrupt98)?ABSOLUTE (__Interrupt98):ABSOLUTE (__DefaultInterrupt)
                  0x0000da          0x4 LONG 0x2d4 DEFINED (__Interrupt99)?ABSOLUTE (__Interrupt99):ABSOLUTE (__DefaultInterrupt)
                  0x0000dc          0x4 LONG 0x2d4 DEFINED (__Interrupt100)?ABSOLUTE (__Interrupt100):ABSOLUTE (__DefaultInterrupt)
                  0x0000de          0x4 LONG 0x2d4 DEFINED (__Interrupt101)?ABSOLUTE (__Interrupt101):ABSOLUTE (__DefaultInterrupt)
                  0x0000e0          0x4 LONG 0x2d4 DEFINED (__Interrupt102)?ABSOLUTE (__Interrupt102):ABSOLUTE (__DefaultInterrupt)
                  0x0000e2          0x4 LONG 0x2d4 DEFINED (__Interrupt103)?ABSOLUTE (__Interrupt103):ABSOLUTE (__DefaultInterrupt)
                  0x0000e4          0x4 LONG 0x2d4 DEFINED (__Interrupt104)?ABSOLUTE (__Interrupt104):ABSOLUTE (__DefaultInterrupt)
                  0x0000e6          0x4 LONG 0x2d4 DEFINED (__Interrupt105)?ABSOLUTE (__Interrupt105):ABSOLUTE (__DefaultInterrupt)
                  0x0000e8          0x4 LONG 0x2d4 DEFINED (__Interrupt106)?ABSOLUTE (__Interrupt106):ABSOLUTE (__DefaultInterrupt)
                  0x0000ea          0x4 LONG 0x2d4 DEFINED (__Interrupt107)?ABSOLUTE (__Interrupt107):ABSOLUTE (__DefaultInterrupt)
                  0x0000ec          0x4 LONG 0x2d4 DEFINED (__Interrupt108)?ABSOLUTE (__Interrupt108):ABSOLUTE (__DefaultInterrupt)
                  0x0000ee          0x4 LONG 0x2d4 DEFINED (__Interrupt109)?ABSOLUTE (__Interrupt109):ABSOLUTE (__DefaultInterrupt)
                  0x0000f0          0x4 LONG 0x2d4 DEFINED (__Interrupt110)?ABSOLUTE (__Interrupt110):ABSOLUTE (__DefaultInterrupt)
                  0x0000f2          0x4 LONG 0x2d4 DEFINED (__Interrupt111)?ABSOLUTE (__Interrupt111):ABSOLUTE (__DefaultInterrupt)
                  0x0000f4          0x4 LONG 0x2d4 DEFINED (__Interrupt112)?ABSOLUTE (__Interrupt112):ABSOLUTE (__DefaultInterrupt)
                  0x0000f6          0x4 LONG 0x2d4 DEFINED (__Interrupt113)?ABSOLUTE (__Interrupt113):ABSOLUTE (__DefaultInterrupt)
                  0x0000f8          0x4 LONG 0x2d4 DEFINED (__Interrupt114)?ABSOLUTE (__Interrupt114):ABSOLUTE (__DefaultInterrupt)
                  0x0000fa          0x4 LONG 0x2d4 DEFINED (__Interrupt115)?ABSOLUTE (__Interrupt115):ABSOLUTE (__DefaultInterrupt)
                  0x0000fc          0x4 LONG 0x2d4 DEFINED (__Interrupt116)?ABSOLUTE (__Interrupt116):ABSOLUTE (__DefaultInterrupt)
                  0x0000fe          0x4 LONG 0x2d4 DEFINED (__Interrupt117)?ABSOLUTE (__Interrupt117):ABSOLUTE (__DefaultInterrupt)

.aivt             0x000104         0xfc
                  0x000104          0x4 LONG 0x2d4 DEFINED (__AltReservedTrap0)?ABSOLUTE (__AltReservedTrap0):DEFINED (__ReservedTrap0)?ABSOLUTE (__ReservedTrap0):ABSOLUTE (__DefaultInterrupt)
                  0x000106          0x4 LONG 0x2d4 DEFINED (__AltOscillatorFail)?ABSOLUTE (__AltOscillatorFail):DEFINED (__OscillatorFail)?ABSOLUTE (__OscillatorFail):ABSOLUTE (__DefaultInterrupt)
                  0x000108          0x4 LONG 0x2731e DEFINED (__AltAddressError)?ABSOLUTE (__AltAddressError):DEFINED (__AddressError)?ABSOLUTE (__AddressError):ABSOLUTE (__DefaultInterrupt)
                  0x00010a          0x4 LONG 0x2d4 DEFINED (__AltStackError)?ABSOLUTE (__AltStackError):DEFINED (__StackError)?ABSOLUTE (__StackError):ABSOLUTE (__DefaultInterrupt)
                  0x00010c          0x4 LONG 0x2d4 DEFINED (__AltMathError)?ABSOLUTE (__AltMathError):DEFINED (__MathError)?ABSOLUTE (__MathError):ABSOLUTE (__DefaultInterrupt)
                  0x00010e          0x4 LONG 0x2d4 DEFINED (__AltReservedTrap5)?ABSOLUTE (__AltReservedTrap5):DEFINED (__ReservedTrap5)?ABSOLUTE (__ReservedTrap5):ABSOLUTE (__DefaultInterrupt)
                  0x000110          0x4 LONG 0x2d4 DEFINED (__AltReservedTrap6)?ABSOLUTE (__AltReservedTrap6):DEFINED (__ReservedTrap6)?ABSOLUTE (__ReservedTrap6):ABSOLUTE (__DefaultInterrupt)
                  0x000112          0x4 LONG 0x2d4 DEFINED (__AltReservedTrap7)?ABSOLUTE (__AltReservedTrap7):DEFINED (__ReservedTrap7)?ABSOLUTE (__ReservedTrap7):ABSOLUTE (__DefaultInterrupt)
                  0x000114          0x4 LONG 0x2d4 DEFINED (__AltINT0Interrupt)?ABSOLUTE (__AltINT0Interrupt):DEFINED (__INT0Interrupt)?ABSOLUTE (__INT0Interrupt):ABSOLUTE (__DefaultInterrupt)
                  0x000116          0x4 LONG 0x2d4 DEFINED (__AltIC1Interrupt)?ABSOLUTE (__AltIC1Interrupt):DEFINED (__IC1Interrupt)?ABSOLUTE (__IC1Interrupt):ABSOLUTE (__DefaultInterrupt)
                  0x000118          0x4 LONG 0x2d4 DEFINED (__AltOC1Interrupt)?ABSOLUTE (__AltOC1Interrupt):DEFINED (__OC1Interrupt)?ABSOLUTE (__OC1Interrupt):ABSOLUTE (__DefaultInterrupt)
                  0x00011a          0x4 LONG 0x2d4 DEFINED (__AltT1Interrupt)?ABSOLUTE (__AltT1Interrupt):DEFINED (__T1Interrupt)?ABSOLUTE (__T1Interrupt):ABSOLUTE (__DefaultInterrupt)
                  0x00011c          0x4 LONG 0x2d4 DEFINED (__AltInterrupt4)?ABSOLUTE (__AltInterrupt4):DEFINED (__Interrupt4)?ABSOLUTE (__Interrupt4):ABSOLUTE (__DefaultInterrupt)
                  0x00011e          0x4 LONG 0x2d4 DEFINED (__AltIC2Interrupt)?ABSOLUTE (__AltIC2Interrupt):DEFINED (__IC2Interrupt)?ABSOLUTE (__IC2Interrupt):ABSOLUTE (__DefaultInterrupt)
                  0x000120          0x4 LONG 0x2d4 DEFINED (__AltOC2Interrupt)?ABSOLUTE (__AltOC2Interrupt):DEFINED (__OC2Interrupt)?ABSOLUTE (__OC2Interrupt):ABSOLUTE (__DefaultInterrupt)
                  0x000122          0x4 LONG 0x2d4 DEFINED (__AltT2Interrupt)?ABSOLUTE (__AltT2Interrupt):DEFINED (__T2Interrupt)?ABSOLUTE (__T2Interrupt):ABSOLUTE (__DefaultInterrupt)
                  0x000124          0x4 LONG 0x2d4 DEFINED (__AltT3Interrupt)?ABSOLUTE (__AltT3Interrupt):DEFINED (__T3Interrupt)?ABSOLUTE (__T3Interrupt):ABSOLUTE (__DefaultInterrupt)
                  0x000126          0x4 LONG 0x2d4 DEFINED (__AltSPI1ErrInterrupt)?ABSOLUTE (__AltSPI1ErrInterrupt):DEFINED (__SPI1ErrInterrupt)?ABSOLUTE (__SPI1ErrInterrupt):ABSOLUTE (__DefaultInterrupt)
                  0x000128          0x4 LONG 0x2d4 DEFINED (__AltSPI1Interrupt)?ABSOLUTE (__AltSPI1Interrupt):DEFINED (__SPI1Interrupt)?ABSOLUTE (__SPI1Interrupt):ABSOLUTE (__DefaultInterrupt)
                  0x00012a          0x4 LONG 0x26f28 DEFINED (__AltU1RXInterrupt)?ABSOLUTE (__AltU1RXInterrupt):DEFINED (__U1RXInterrupt)?ABSOLUTE (__U1RXInterrupt):ABSOLUTE (__DefaultInterrupt)
                  0x00012c          0x4 LONG 0x26f7a DEFINED (__AltU1TXInterrupt)?ABSOLUTE (__AltU1TXInterrupt):DEFINED (__U1TXInterrupt)?ABSOLUTE (__U1TXInterrupt):ABSOLUTE (__DefaultInterrupt)
                  0x00012e          0x4 LONG 0x2d4 DEFINED (__AltADC1Interrupt)?ABSOLUTE (__AltADC1Interrupt):DEFINED (__ADC1Interrupt)?ABSOLUTE (__ADC1Interrupt):ABSOLUTE (__DefaultInterrupt)
                  0x000130          0x4 LONG 0x2d4 DEFINED (__AltInterrupt14)?ABSOLUTE (__AltInterrupt14):DEFINED (__Interrupt14)?ABSOLUTE (__Interrupt14):ABSOLUTE (__DefaultInterrupt)
                  0x000132          0x4 LONG 0x2d4 DEFINED (__AltInterrupt15)?ABSOLUTE (__AltInterrupt15):DEFINED (__Interrupt15)?ABSOLUTE (__Interrupt15):ABSOLUTE (__DefaultInterrupt)
                  0x000134          0x4 LONG 0x2d4 DEFINED (__AltSI2C1Interrupt)?ABSOLUTE (__AltSI2C1Interrupt):DEFINED (__SI2C1Interrupt)?ABSOLUTE (__SI2C1Interrupt):ABSOLUTE (__DefaultInterrupt)
                  0x000136          0x4 LONG 0x2d4 DEFINED (__AltMI2C1Interrupt)?ABSOLUTE (__AltMI2C1Interrupt):DEFINED (__MI2C1Interrupt)?ABSOLUTE (__MI2C1Interrupt):ABSOLUTE (__DefaultInterrupt)
                  0x000138          0x4 LONG 0x2d4 DEFINED (__AltCompInterrupt)?ABSOLUTE (__AltCompInterrupt):DEFINED (__CompInterrupt)?ABSOLUTE (__CompInterrupt):ABSOLUTE (__DefaultInterrupt)
                  0x00013a          0x4 LONG 0x2d4 DEFINED (__AltCNInterrupt)?ABSOLUTE (__AltCNInterrupt):DEFINED (__CNInterrupt)?ABSOLUTE (__CNInterrupt):ABSOLUTE (__DefaultInterrupt)
                  0x00013c          0x4 LONG 0x2446e DEFINED (__AltINT1Interrupt)?ABSOLUTE (__AltINT1Interrupt):DEFINED (__INT1Interrupt)?ABSOLUTE (__INT1Interrupt):ABSOLUTE (__DefaultInterrupt)
                  0x00013e          0x4 LONG 0x2d4 DEFINED (__AltInterrupt21)?ABSOLUTE (__AltInterrupt21):DEFINED (__Interrupt21)?ABSOLUTE (__Interrupt21):ABSOLUTE (__DefaultInterrupt)
                  0x000140          0x4 LONG 0x2d4 DEFINED (__AltIC7Interrupt)?ABSOLUTE (__AltIC7Interrupt):DEFINED (__IC7Interrupt)?ABSOLUTE (__IC7Interrupt):ABSOLUTE (__DefaultInterrupt)
                  0x000142          0x4 LONG 0x2d4 DEFINED (__AltIC8Interrupt)?ABSOLUTE (__AltIC8Interrupt):DEFINED (__IC8Interrupt)?ABSOLUTE (__IC8Interrupt):ABSOLUTE (__DefaultInterrupt)
                  0x000144          0x4 LONG 0x2d4 DEFINED (__AltInterrupt24)?ABSOLUTE (__AltInterrupt24):DEFINED (__Interrupt24)?ABSOLUTE (__Interrupt24):ABSOLUTE (__DefaultInterrupt)
                  0x000146          0x4 LONG 0x2d4 DEFINED (__AltOC3Interrupt)?ABSOLUTE (__AltOC3Interrupt):DEFINED (__OC3Interrupt)?ABSOLUTE (__OC3Interrupt):ABSOLUTE (__DefaultInterrupt)
                  0x000148          0x4 LONG 0x2d4 DEFINED (__AltOC4Interrupt)?ABSOLUTE (__AltOC4Interrupt):DEFINED (__OC4Interrupt)?ABSOLUTE (__OC4Interrupt):ABSOLUTE (__DefaultInterrupt)
                  0x00014a          0x4 LONG 0x2d4 DEFINED (__AltT4Interrupt)?ABSOLUTE (__AltT4Interrupt):DEFINED (__T4Interrupt)?ABSOLUTE (__T4Interrupt):ABSOLUTE (__DefaultInterrupt)
                  0x00014c          0x4 LONG 0x2d4 DEFINED (__AltT5Interrupt)?ABSOLUTE (__AltT5Interrupt):DEFINED (__T5Interrupt)?ABSOLUTE (__T5Interrupt):ABSOLUTE (__DefaultInterrupt)
                  0x00014e          0x4 LONG 0x2d4 DEFINED (__AltINT2Interrupt)?ABSOLUTE (__AltINT2Interrupt):DEFINED (__INT2Interrupt)?ABSOLUTE (__INT2Interrupt):ABSOLUTE (__DefaultInterrupt)
                  0x000150          0x4 LONG 0x2d4 DEFINED (__AltU2RXInterrupt)?ABSOLUTE (__AltU2RXInterrupt):DEFINED (__U2RXInterrupt)?ABSOLUTE (__U2RXInterrupt):ABSOLUTE (__DefaultInterrupt)
                  0x000152          0x4 LONG 0x2d4 DEFINED (__AltU2TXInterrupt)?ABSOLUTE (__AltU2TXInterrupt):DEFINED (__U2TXInterrupt)?ABSOLUTE (__U2TXInterrupt):ABSOLUTE (__DefaultInterrupt)
                  0x000154          0x4 LONG 0x2d4 DEFINED (__AltSPI2ErrInterrupt)?ABSOLUTE (__AltSPI2ErrInterrupt):DEFINED (__SPI2ErrInterrupt)?ABSOLUTE (__SPI2ErrInterrupt):ABSOLUTE (__DefaultInterrupt)
                  0x000156          0x4 LONG 0x2d4 DEFINED (__AltSPI2Interrupt)?ABSOLUTE (__AltSPI2Interrupt):DEFINED (__SPI2Interrupt)?ABSOLUTE (__SPI2Interrupt):ABSOLUTE (__DefaultInterrupt)
                  0x000158          0x4 LONG 0x2d4 DEFINED (__AltInterrupt34)?ABSOLUTE (__AltInterrupt34):DEFINED (__Interrupt34)?ABSOLUTE (__Interrupt34):ABSOLUTE (__DefaultInterrupt)
                  0x00015a          0x4 LONG 0x2d4 DEFINED (__AltInterrupt35)?ABSOLUTE (__AltInterrupt35):DEFINED (__Interrupt35)?ABSOLUTE (__Interrupt35):ABSOLUTE (__DefaultInterrupt)
                  0x00015c          0x4 LONG 0x2d4 DEFINED (__AltInterrupt36)?ABSOLUTE (__AltInterrupt36):DEFINED (__Interrupt36)?ABSOLUTE (__Interrupt36):ABSOLUTE (__DefaultInterrupt)
                  0x00015e          0x4 LONG 0x2d4 DEFINED (__AltIC3Interrupt)?ABSOLUTE (__AltIC3Interrupt):DEFINED (__IC3Interrupt)?ABSOLUTE (__IC3Interrupt):ABSOLUTE (__DefaultInterrupt)
                  0x000160          0x4 LONG 0x2d4 DEFINED (__AltIC4Interrupt)?ABSOLUTE (__AltIC4Interrupt):DEFINED (__IC4Interrupt)?ABSOLUTE (__IC4Interrupt):ABSOLUTE (__DefaultInterrupt)
                  0x000162          0x4 LONG 0x2d4 DEFINED (__AltIC5Interrupt)?ABSOLUTE (__AltIC5Interrupt):DEFINED (__IC5Interrupt)?ABSOLUTE (__IC5Interrupt):ABSOLUTE (__DefaultInterrupt)
                  0x000164          0x4 LONG 0x2d4 DEFINED (__AltIC6Interrupt)?ABSOLUTE (__AltIC6Interrupt):DEFINED (__IC6Interrupt)?ABSOLUTE (__IC6Interrupt):ABSOLUTE (__DefaultInterrupt)
                  0x000166          0x4 LONG 0x2d4 DEFINED (__AltOC5Interrupt)?ABSOLUTE (__AltOC5Interrupt):DEFINED (__OC5Interrupt)?ABSOLUTE (__OC5Interrupt):ABSOLUTE (__DefaultInterrupt)
                  0x000168          0x4 LONG 0x2d4 DEFINED (__AltOC6Interrupt)?ABSOLUTE (__AltOC6Interrupt):DEFINED (__OC6Interrupt)?ABSOLUTE (__OC6Interrupt):ABSOLUTE (__DefaultInterrupt)
                  0x00016a          0x4 LONG 0x2d4 DEFINED (__AltOC7Interrupt)?ABSOLUTE (__AltOC7Interrupt):DEFINED (__OC7Interrupt)?ABSOLUTE (__OC7Interrupt):ABSOLUTE (__DefaultInterrupt)
                  0x00016c          0x4 LONG 0x2d4 DEFINED (__AltOC8Interrupt)?ABSOLUTE (__AltOC8Interrupt):DEFINED (__OC8Interrupt)?ABSOLUTE (__OC8Interrupt):ABSOLUTE (__DefaultInterrupt)
                  0x00016e          0x4 LONG 0x2d4 DEFINED (__AltPMPInterrupt)?ABSOLUTE (__AltPMPInterrupt):DEFINED (__PMPInterrupt)?ABSOLUTE (__PMPInterrupt):ABSOLUTE (__DefaultInterrupt)
                  0x000170          0x4 LONG 0x2d4 DEFINED (__AltInterrupt46)?ABSOLUTE (__AltInterrupt46):DEFINED (__Interrupt46)?ABSOLUTE (__Interrupt46):ABSOLUTE (__DefaultInterrupt)
                  0x000172          0x4 LONG 0x2d4 DEFINED (__AltInterrupt47)?ABSOLUTE (__AltInterrupt47):DEFINED (__Interrupt47)?ABSOLUTE (__Interrupt47):ABSOLUTE (__DefaultInterrupt)
                  0x000174          0x4 LONG 0x2d4 DEFINED (__AltInterrupt48)?ABSOLUTE (__AltInterrupt48):DEFINED (__Interrupt48)?ABSOLUTE (__Interrupt48):ABSOLUTE (__DefaultInterrupt)
                  0x000176          0x4 LONG 0x2d4 DEFINED (__AltSI2C2Interrupt)?ABSOLUTE (__AltSI2C2Interrupt):DEFINED (__SI2C2Interrupt)?ABSOLUTE (__SI2C2Interrupt):ABSOLUTE (__DefaultInterrupt)
                  0x000178          0x4 LONG 0x2d4 DEFINED (__AltMI2C2Interrupt)?ABSOLUTE (__AltMI2C2Interrupt):DEFINED (__MI2C2Interrupt)?ABSOLUTE (__MI2C2Interrupt):ABSOLUTE (__DefaultInterrupt)
                  0x00017a          0x4 LONG 0x2d4 DEFINED (__AltInterrupt51)?ABSOLUTE (__AltInterrupt51):DEFINED (__Interrupt51)?ABSOLUTE (__Interrupt51):ABSOLUTE (__DefaultInterrupt)
                  0x00017c          0x4 LONG 0x2d4 DEFINED (__AltInterrupt52)?ABSOLUTE (__AltInterrupt52):DEFINED (__Interrupt52)?ABSOLUTE (__Interrupt52):ABSOLUTE (__DefaultInterrupt)
                  0x00017e          0x4 LONG 0x2d4 DEFINED (__AltINT3Interrupt)?ABSOLUTE (__AltINT3Interrupt):DEFINED (__INT3Interrupt)?ABSOLUTE (__INT3Interrupt):ABSOLUTE (__DefaultInterrupt)
                  0x000180          0x4 LONG 0x2d4 DEFINED (__AltINT4Interrupt)?ABSOLUTE (__AltINT4Interrupt):DEFINED (__INT4Interrupt)?ABSOLUTE (__INT4Interrupt):ABSOLUTE (__DefaultInterrupt)
                  0x000182          0x4 LONG 0x2d4 DEFINED (__AltInterrupt55)?ABSOLUTE (__AltInterrupt55):DEFINED (__Interrupt55)?ABSOLUTE (__Interrupt55):ABSOLUTE (__DefaultInterrupt)
                  0x000184          0x4 LONG 0x2d4 DEFINED (__AltInterrupt56)?ABSOLUTE (__AltInterrupt56):DEFINED (__Interrupt56)?ABSOLUTE (__Interrupt56):ABSOLUTE (__DefaultInterrupt)
                  0x000186          0x4 LONG 0x2d4 DEFINED (__AltInterrupt57)?ABSOLUTE (__AltInterrupt57):DEFINED (__Interrupt57)?ABSOLUTE (__Interrupt57):ABSOLUTE (__DefaultInterrupt)
                  0x000188          0x4 LONG 0x2d4 DEFINED (__AltInterrupt58)?ABSOLUTE (__AltInterrupt58):DEFINED (__Interrupt58)?ABSOLUTE (__Interrupt58):ABSOLUTE (__DefaultInterrupt)
                  0x00018a          0x4 LONG 0x2d4 DEFINED (__AltInterrupt59)?ABSOLUTE (__AltInterrupt59):DEFINED (__Interrupt59)?ABSOLUTE (__Interrupt59):ABSOLUTE (__DefaultInterrupt)
                  0x00018c          0x4 LONG 0x2d4 DEFINED (__AltInterrupt60)?ABSOLUTE (__AltInterrupt60):DEFINED (__Interrupt60)?ABSOLUTE (__Interrupt60):ABSOLUTE (__DefaultInterrupt)
                  0x00018e          0x4 LONG 0x2d4 DEFINED (__AltInterrupt61)?ABSOLUTE (__AltInterrupt61):DEFINED (__Interrupt61)?ABSOLUTE (__Interrupt61):ABSOLUTE (__DefaultInterrupt)
                  0x000190          0x4 LONG 0x2d4 DEFINED (__AltRTCCInterrupt)?ABSOLUTE (__AltRTCCInterrupt):DEFINED (__RTCCInterrupt)?ABSOLUTE (__RTCCInterrupt):ABSOLUTE (__DefaultInterrupt)
                  0x000192          0x4 LONG 0x2d4 DEFINED (__AltInterrupt63)?ABSOLUTE (__AltInterrupt63):DEFINED (__Interrupt63)?ABSOLUTE (__Interrupt63):ABSOLUTE (__DefaultInterrupt)
                  0x000194          0x4 LONG 0x2d4 DEFINED (__AltInterrupt64)?ABSOLUTE (__AltInterrupt64):DEFINED (__Interrupt64)?ABSOLUTE (__Interrupt64):ABSOLUTE (__DefaultInterrupt)
                  0x000196          0x4 LONG 0x2d4 DEFINED (__AltU1ErrInterrupt)?ABSOLUTE (__AltU1ErrInterrupt):DEFINED (__U1ErrInterrupt)?ABSOLUTE (__U1ErrInterrupt):ABSOLUTE (__DefaultInterrupt)
                  0x000198          0x4 LONG 0x2d4 DEFINED (__AltU2ErrInterrupt)?ABSOLUTE (__AltU2ErrInterrupt):DEFINED (__U2ErrInterrupt)?ABSOLUTE (__U2ErrInterrupt):ABSOLUTE (__DefaultInterrupt)
                  0x00019a          0x4 LONG 0x2d4 DEFINED (__AltCRCInterrupt)?ABSOLUTE (__AltCRCInterrupt):DEFINED (__CRCInterrupt)?ABSOLUTE (__CRCInterrupt):ABSOLUTE (__DefaultInterrupt)
                  0x00019c          0x4 LONG 0x2d4 DEFINED (__AltInterrupt68)?ABSOLUTE (__AltInterrupt68):DEFINED (__Interrupt68)?ABSOLUTE (__Interrupt68):ABSOLUTE (__DefaultInterrupt)
                  0x00019e          0x4 LONG 0x2d4 DEFINED (__AltInterrupt69)?ABSOLUTE (__AltInterrupt69):DEFINED (__Interrupt69)?ABSOLUTE (__Interrupt69):ABSOLUTE (__DefaultInterrupt)
                  0x0001a0          0x4 LONG 0x2d4 DEFINED (__AltInterrupt70)?ABSOLUTE (__AltInterrupt70):DEFINED (__Interrupt70)?ABSOLUTE (__Interrupt70):ABSOLUTE (__DefaultInterrupt)
                  0x0001a2          0x4 LONG 0x2d4 DEFINED (__AltInterrupt71)?ABSOLUTE (__AltInterrupt71):DEFINED (__Interrupt71)?ABSOLUTE (__Interrupt71):ABSOLUTE (__DefaultInterrupt)
                  0x0001a4          0x4 LONG 0x2d4 DEFINED (__AltLVDInterrupt)?ABSOLUTE (__AltLVDInterrupt):DEFINED (__LVDInterrupt)?ABSOLUTE (__LVDInterrupt):ABSOLUTE (__DefaultInterrupt)
                  0x0001a6          0x4 LONG 0x2d4 DEFINED (__AltInterrupt73)?ABSOLUTE (__AltInterrupt73):DEFINED (__Interrupt73)?ABSOLUTE (__Interrupt73):ABSOLUTE (__DefaultInterrupt)
                  0x0001a8          0x4 LONG 0x2d4 DEFINED (__AltInterrupt74)?ABSOLUTE (__AltInterrupt74):DEFINED (__Interrupt74)?ABSOLUTE (__Interrupt74):ABSOLUTE (__DefaultInterrupt)
                  0x0001aa          0x4 LONG 0x2d4 DEFINED (__AltInterrupt75)?ABSOLUTE (__AltInterrupt75):DEFINED (__Interrupt75)?ABSOLUTE (__Interrupt75):ABSOLUTE (__DefaultInterrupt)
                  0x0001ac          0x4 LONG 0x2d4 DEFINED (__AltInterrupt76)?ABSOLUTE (__AltInterrupt76):DEFINED (__Interrupt76)?ABSOLUTE (__Interrupt76):ABSOLUTE (__DefaultInterrupt)
                  0x0001ae          0x4 LONG 0x2d4 DEFINED (__AltCTMUInterrupt)?ABSOLUTE (__AltCTMUInterrupt):DEFINED (__CTMUInterrupt)?ABSOLUTE (__CTMUInterrupt):ABSOLUTE (__DefaultInterrupt)
                  0x0001b0          0x4 LONG 0x2d4 DEFINED (__AltInterrupt78)?ABSOLUTE (__AltInterrupt78):DEFINED (__Interrupt78)?ABSOLUTE (__Interrupt78):ABSOLUTE (__DefaultInterrupt)
                  0x0001b2          0x4 LONG 0x2d4 DEFINED (__AltInterrupt79)?ABSOLUTE (__AltInterrupt79):DEFINED (__Interrupt79)?ABSOLUTE (__Interrupt79):ABSOLUTE (__DefaultInterrupt)
                  0x0001b4          0x4 LONG 0x2d4 DEFINED (__AltInterrupt80)?ABSOLUTE (__AltInterrupt80):DEFINED (__Interrupt80)?ABSOLUTE (__Interrupt80):ABSOLUTE (__DefaultInterrupt)
                  0x0001b6          0x4 LONG 0x2d4 DEFINED (__AltU3ErrInterrupt)?ABSOLUTE (__AltU3ErrInterrupt):DEFINED (__U3ErrInterrupt)?ABSOLUTE (__U3ErrInterrupt):ABSOLUTE (__DefaultInterrupt)
                  0x0001b8          0x4 LONG 0x2d4 DEFINED (__AltU3RXInterrupt)?ABSOLUTE (__AltU3RXInterrupt):DEFINED (__U3RXInterrupt)?ABSOLUTE (__U3RXInterrupt):ABSOLUTE (__DefaultInterrupt)
                  0x0001ba          0x4 LONG 0x2d4 DEFINED (__AltU3TXInterrupt)?ABSOLUTE (__AltU3TXInterrupt):DEFINED (__U3TXInterrupt)?ABSOLUTE (__U3TXInterrupt):ABSOLUTE (__DefaultInterrupt)
                  0x0001bc          0x4 LONG 0x2d4 DEFINED (__AltSI2C3Interrupt)?ABSOLUTE (__AltSI2C3Interrupt):DEFINED (__SI2C3Interrupt)?ABSOLUTE (__SI2C3Interrupt):ABSOLUTE (__DefaultInterrupt)
                  0x0001be          0x4 LONG 0x2d4 DEFINED (__AltMI2C3Interrupt)?ABSOLUTE (__AltMI2C3Interrupt):DEFINED (__MI2C3Interrupt)?ABSOLUTE (__MI2C3Interrupt):ABSOLUTE (__DefaultInterrupt)
                  0x0001c0          0x4 LONG 0x2d4 DEFINED (__AltUSB1Interrupt)?ABSOLUTE (__AltUSB1Interrupt):DEFINED (__USB1Interrupt)?ABSOLUTE (__USB1Interrupt):ABSOLUTE (__DefaultInterrupt)
                  0x0001c2          0x4 LONG 0x2d4 DEFINED (__AltU4ErrInterrupt)?ABSOLUTE (__AltU4ErrInterrupt):DEFINED (__U4ErrInterrupt)?ABSOLUTE (__U4ErrInterrupt):ABSOLUTE (__DefaultInterrupt)
                  0x0001c4          0x4 LONG 0x2d4 DEFINED (__AltU4RXInterrupt)?ABSOLUTE (__AltU4RXInterrupt):DEFINED (__U4RXInterrupt)?ABSOLUTE (__U4RXInterrupt):ABSOLUTE (__DefaultInterrupt)
                  0x0001c6          0x4 LONG 0x2d4 DEFINED (__AltU4TXInterrupt)?ABSOLUTE (__AltU4TXInterrupt):DEFINED (__U4TXInterrupt)?ABSOLUTE (__U4TXInterrupt):ABSOLUTE (__DefaultInterrupt)
                  0x0001c8          0x4 LONG 0x2d4 DEFINED (__AltSPI3ErrInterrupt)?ABSOLUTE (__AltSPI3ErrInterrupt):DEFINED (__SPI3ErrInterrupt)?ABSOLUTE (__SPI3ErrInterrupt):ABSOLUTE (__DefaultInterrupt)
                  0x0001ca          0x4 LONG 0x2d4 DEFINED (__AltSPI3Interrupt)?ABSOLUTE (__AltSPI3Interrupt):DEFINED (__SPI3Interrupt)?ABSOLUTE (__SPI3Interrupt):ABSOLUTE (__DefaultInterrupt)
                  0x0001cc          0x4 LONG 0x2d4 DEFINED (__AltOC9Interrupt)?ABSOLUTE (__AltOC9Interrupt):DEFINED (__OC9Interrupt)?ABSOLUTE (__OC9Interrupt):ABSOLUTE (__DefaultInterrupt)
                  0x0001ce          0x4 LONG 0x2d4 DEFINED (__AltIC9Interrupt)?ABSOLUTE (__AltIC9Interrupt):DEFINED (__IC9Interrupt)?ABSOLUTE (__IC9Interrupt):ABSOLUTE (__DefaultInterrupt)
                  0x0001d0          0x4 LONG 0x2d4 DEFINED (__AltInterrupt94)?ABSOLUTE (__AltInterrupt94):DEFINED (__Interrupt94)?ABSOLUTE (__Interrupt94):ABSOLUTE (__DefaultInterrupt)
                  0x0001d2          0x4 LONG 0x2d4 DEFINED (__AltInterrupt95)?ABSOLUTE (__AltInterrupt95):DEFINED (__Interrupt95)?ABSOLUTE (__Interrupt95):ABSOLUTE (__DefaultInterrupt)
                  0x0001d4          0x4 LONG 0x2d4 DEFINED (__AltInterrupt96)?ABSOLUTE (__AltInterrupt96):DEFINED (__Interrupt96)?ABSOLUTE (__Interrupt96):ABSOLUTE (__DefaultInterrupt)
                  0x0001d6          0x4 LONG 0x2d4 DEFINED (__AltInterrupt97)?ABSOLUTE (__AltInterrupt97):DEFINED (__Interrupt97)?ABSOLUTE (__Interrupt97):ABSOLUTE (__DefaultInterrupt)
                  0x0001d8          0x4 LONG 0x2d4 DEFINED (__AltInterrupt98)?ABSOLUTE (__AltInterrupt98):DEFINED (__Interrupt98)?ABSOLUTE (__Interrupt98):ABSOLUTE (__DefaultInterrupt)
                  0x0001da          0x4 LONG 0x2d4 DEFINED (__AltInterrupt99)?ABSOLUTE (__AltInterrupt99):DEFINED (__Interrupt99)?ABSOLUTE (__Interrupt99):ABSOLUTE (__DefaultInterrupt)
                  0x0001dc          0x4 LONG 0x2d4 DEFINED (__AltInterrupt100)?ABSOLUTE (__AltInterrupt100):DEFINED (__Interrupt100)?ABSOLUTE (__Interrupt100):ABSOLUTE (__DefaultInterrupt)
                  0x0001de          0x4 LONG 0x2d4 DEFINED (__AltInterrupt101)?ABSOLUTE (__AltInterrupt101):DEFINED (__Interrupt101)?ABSOLUTE (__Interrupt101):ABSOLUTE (__DefaultInterrupt)
                  0x0001e0          0x4 LONG 0x2d4 DEFINED (__AltInterrupt102)?ABSOLUTE (__AltInterrupt102):DEFINED (__Interrupt102)?ABSOLUTE (__Interrupt102):ABSOLUTE (__DefaultInterrupt)
                  0x0001e2          0x4 LONG 0x2d4 DEFINED (__AltInterrupt103)?ABSOLUTE (__AltInterrupt103):DEFINED (__Interrupt103)?ABSOLUTE (__Interrupt103):ABSOLUTE (__DefaultInterrupt)
                  0x0001e4          0x4 LONG 0x2d4 DEFINED (__AltInterrupt104)?ABSOLUTE (__AltInterrupt104):DEFINED (__Interrupt104)?ABSOLUTE (__Interrupt104):ABSOLUTE (__DefaultInterrupt)
                  0x0001e6          0x4 LONG 0x2d4 DEFINED (__AltInterrupt105)?ABSOLUTE (__AltInterrupt105):DEFINED (__Interrupt105)?ABSOLUTE (__Interrupt105):ABSOLUTE (__DefaultInterrupt)
                  0x0001e8          0x4 LONG 0x2d4 DEFINED (__AltInterrupt106)?ABSOLUTE (__AltInterrupt106):DEFINED (__Interrupt106)?ABSOLUTE (__Interrupt106):ABSOLUTE (__DefaultInterrupt)
                  0x0001ea          0x4 LONG 0x2d4 DEFINED (__AltInterrupt107)?ABSOLUTE (__AltInterrupt107):DEFINED (__Interrupt107)?ABSOLUTE (__Interrupt107):ABSOLUTE (__DefaultInterrupt)
                  0x0001ec          0x4 LONG 0x2d4 DEFINED (__AltInterrupt108)?ABSOLUTE (__AltInterrupt108):DEFINED (__Interrupt108)?ABSOLUTE (__Interrupt108):ABSOLUTE (__DefaultInterrupt)
                  0x0001ee          0x4 LONG 0x2d4 DEFINED (__AltInterrupt109)?ABSOLUTE (__AltInterrupt109):DEFINED (__Interrupt109)?ABSOLUTE (__Interrupt109):ABSOLUTE (__DefaultInterrupt)
                  0x0001f0          0x4 LONG 0x2d4 DEFINED (__AltInterrupt110)?ABSOLUTE (__AltInterrupt110):DEFINED (__Interrupt110)?ABSOLUTE (__Interrupt110):ABSOLUTE (__DefaultInterrupt)
                  0x0001f2          0x4 LONG 0x2d4 DEFINED (__AltInterrupt111)?ABSOLUTE (__AltInterrupt111):DEFINED (__Interrupt111)?ABSOLUTE (__Interrupt111):ABSOLUTE (__DefaultInterrupt)
                  0x0001f4          0x4 LONG 0x2d4 DEFINED (__AltInterrupt112)?ABSOLUTE (__AltInterrupt112):DEFINED (__Interrupt112)?ABSOLUTE (__Interrupt112):ABSOLUTE (__DefaultInterrupt)
                  0x0001f6          0x4 LONG 0x2d4 DEFINED (__AltInterrupt113)?ABSOLUTE (__AltInterrupt113):DEFINED (__Interrupt113)?ABSOLUTE (__Interrupt113):ABSOLUTE (__DefaultInterrupt)
                  0x0001f8          0x4 LONG 0x2d4 DEFINED (__AltInterrupt114)?ABSOLUTE (__AltInterrupt114):DEFINED (__Interrupt114)?ABSOLUTE (__Interrupt114):ABSOLUTE (__DefaultInterrupt)
                  0x0001fa          0x4 LONG 0x2d4 DEFINED (__AltInterrupt115)?ABSOLUTE (__AltInterrupt115):DEFINED (__Interrupt115)?ABSOLUTE (__Interrupt115):ABSOLUTE (__DefaultInterrupt)
                  0x0001fc          0x4 LONG 0x2d4 DEFINED (__AltInterrupt116)?ABSOLUTE (__AltInterrupt116):DEFINED (__Interrupt116)?ABSOLUTE (__Interrupt116):ABSOLUTE (__DefaultInterrupt)
                  0x0001fe          0x4 LONG 0x2d4 DEFINED (__AltInterrupt117)?ABSOLUTE (__AltInterrupt117):DEFINED (__Interrupt117)?ABSOLUTE (__Interrupt117):ABSOLUTE (__DefaultInterrupt)
                    0x0000                  WREG0 = 0x0
                    0x0000                  _WREG0 = 0x0
                    0x0002                  WREG1 = 0x2
                    0x0002                  _WREG1 = 0x2
                    0x0004                  WREG2 = 0x4
                    0x0004                  _WREG2 = 0x4
                    0x0006                  WREG3 = 0x6
                    0x0006                  _WREG3 = 0x6
                    0x0008                  WREG4 = 0x8
                    0x0008                  _WREG4 = 0x8
                    0x000a                  WREG5 = 0xa
                    0x000a                  _WREG5 = 0xa
                    0x000c                  WREG6 = 0xc
                    0x000c                  _WREG6 = 0xc
                    0x000e                  WREG7 = 0xe
                    0x000e                  _WREG7 = 0xe
                    0x0010                  WREG8 = 0x10
                    0x0010                  _WREG8 = 0x10
                    0x0012                  WREG9 = 0x12
                    0x0012                  _WREG9 = 0x12
                    0x0014                  WREG10 = 0x14
                    0x0014                  _WREG10 = 0x14
                    0x0016                  WREG11 = 0x16
                    0x0016                  _WREG11 = 0x16
                    0x0018                  WREG12 = 0x18
                    0x0018                  _WREG12 = 0x18
                    0x001a                  WREG13 = 0x1a
                    0x001a                  _WREG13 = 0x1a
                    0x001c                  WREG14 = 0x1c
                    0x001c                  _WREG14 = 0x1c
                    0x001e                  WREG15 = 0x1e
                    0x001e                  _WREG15 = 0x1e
                    0x0020                  SPLIM = 0x20
                    0x0020                  _SPLIM = 0x20
                    0x002e                  PCL = 0x2e
                    0x002e                  _PCL = 0x2e
                    0x0030                  PCH = 0x30
                    0x0030                  _PCH = 0x30
                    0x0032                  TBLPAG = 0x32
                    0x0032                  _TBLPAG = 0x32
                    0x0034                  PSVPAG = 0x34
                    0x0034                  _PSVPAG = 0x34
                    0x0036                  RCOUNT = 0x36
                    0x0036                  _RCOUNT = 0x36
                    0x0042                  SR = 0x42
                    0x0042                  _SR = 0x42
                    0x0042                  _SRbits = 0x42
                    0x0044                  CORCON = 0x44
                    0x0044                  _CORCON = 0x44
                    0x0044                  _CORCONbits = 0x44
                    0x0052                  DISICNT = 0x52
                    0x0052                  _DISICNT = 0x52
                    0x0054                  CNPD1 = 0x54
                    0x0054                  _CNPD1 = 0x54
                    0x0054                  _CNPD1bits = 0x54
                    0x0056                  CNPD2 = 0x56
                    0x0056                  _CNPD2 = 0x56
                    0x0056                  _CNPD2bits = 0x56
                    0x0058                  CNPD3 = 0x58
                    0x0058                  _CNPD3 = 0x58
                    0x0058                  _CNPD3bits = 0x58
                    0x005a                  CNPD4 = 0x5a
                    0x005a                  _CNPD4 = 0x5a
                    0x005a                  _CNPD4bits = 0x5a
                    0x005c                  CNPD5 = 0x5c
                    0x005c                  _CNPD5 = 0x5c
                    0x005c                  _CNPD5bits = 0x5c
                    0x0060                  CNEN1 = 0x60
                    0x0060                  _CNEN1 = 0x60
                    0x0060                  _CNEN1bits = 0x60
                    0x0062                  CNEN2 = 0x62
                    0x0062                  _CNEN2 = 0x62
                    0x0062                  _CNEN2bits = 0x62
                    0x0064                  CNEN3 = 0x64
                    0x0064                  _CNEN3 = 0x64
                    0x0064                  _CNEN3bits = 0x64
                    0x0066                  CNEN4 = 0x66
                    0x0066                  _CNEN4 = 0x66
                    0x0066                  _CNEN4bits = 0x66
                    0x0068                  CNEN5 = 0x68
                    0x0068                  _CNEN5 = 0x68
                    0x0068                  _CNEN5bits = 0x68
                    0x006c                  CNPU1 = 0x6c
                    0x006c                  _CNPU1 = 0x6c
                    0x006c                  _CNPU1bits = 0x6c
                    0x006e                  CNPU2 = 0x6e
                    0x006e                  _CNPU2 = 0x6e
                    0x006e                  _CNPU2bits = 0x6e
                    0x0070                  CNPU3 = 0x70
                    0x0070                  _CNPU3 = 0x70
                    0x0070                  _CNPU3bits = 0x70
                    0x0072                  CNPU4 = 0x72
                    0x0072                  _CNPU4 = 0x72
                    0x0072                  _CNPU4bits = 0x72
                    0x0074                  CNPU5 = 0x74
                    0x0074                  _CNPU5 = 0x74
                    0x0074                  _CNPU5bits = 0x74
                    0x0080                  INTCON1 = 0x80
                    0x0080                  _INTCON1 = 0x80
                    0x0080                  _INTCON1bits = 0x80
                    0x0082                  INTCON2 = 0x82
                    0x0082                  _INTCON2 = 0x82
                    0x0082                  _INTCON2bits = 0x82
                    0x0084                  IFS0 = 0x84
                    0x0084                  _IFS0 = 0x84
                    0x0084                  _IFS0bits = 0x84
                    0x0086                  IFS1 = 0x86
                    0x0086                  _IFS1 = 0x86
                    0x0086                  _IFS1bits = 0x86
                    0x0088                  IFS2 = 0x88
                    0x0088                  _IFS2 = 0x88
                    0x0088                  _IFS2bits = 0x88
                    0x008a                  IFS3 = 0x8a
                    0x008a                  _IFS3 = 0x8a
                    0x008a                  _IFS3bits = 0x8a
                    0x008c                  IFS4 = 0x8c
                    0x008c                  _IFS4 = 0x8c
                    0x008c                  _IFS4bits = 0x8c
                    0x008e                  IFS5 = 0x8e
                    0x008e                  _IFS5 = 0x8e
                    0x008e                  _IFS5bits = 0x8e
                    0x0094                  IEC0 = 0x94
                    0x0094                  _IEC0 = 0x94
                    0x0094                  _IEC0bits = 0x94
                    0x0096                  IEC1 = 0x96
                    0x0096                  _IEC1 = 0x96
                    0x0096                  _IEC1bits = 0x96
                    0x0098                  IEC2 = 0x98
                    0x0098                  _IEC2 = 0x98
                    0x0098                  _IEC2bits = 0x98
                    0x009a                  IEC3 = 0x9a
                    0x009a                  _IEC3 = 0x9a
                    0x009a                  _IEC3bits = 0x9a
                    0x009c                  IEC4 = 0x9c
                    0x009c                  _IEC4 = 0x9c
                    0x009c                  _IEC4bits = 0x9c
                    0x009e                  IEC5 = 0x9e
                    0x009e                  _IEC5 = 0x9e
                    0x009e                  _IEC5bits = 0x9e
                    0x00a4                  IPC0 = 0xa4
                    0x00a4                  _IPC0 = 0xa4
                    0x00a4                  _IPC0bits = 0xa4
                    0x00a6                  IPC1 = 0xa6
                    0x00a6                  _IPC1 = 0xa6
                    0x00a6                  _IPC1bits = 0xa6
                    0x00a8                  IPC2 = 0xa8
                    0x00a8                  _IPC2 = 0xa8
                    0x00a8                  _IPC2bits = 0xa8
                    0x00aa                  IPC3 = 0xaa
                    0x00aa                  _IPC3 = 0xaa
                    0x00aa                  _IPC3bits = 0xaa
                    0x00ac                  IPC4 = 0xac
                    0x00ac                  _IPC4 = 0xac
                    0x00ac                  _IPC4bits = 0xac
                    0x00ae                  IPC5 = 0xae
                    0x00ae                  _IPC5 = 0xae
                    0x00ae                  _IPC5bits = 0xae
                    0x00b0                  IPC6 = 0xb0
                    0x00b0                  _IPC6 = 0xb0
                    0x00b0                  _IPC6bits = 0xb0
                    0x00b2                  IPC7 = 0xb2
                    0x00b2                  _IPC7 = 0xb2
                    0x00b2                  _IPC7bits = 0xb2
                    0x00b4                  IPC8 = 0xb4
                    0x00b4                  _IPC8 = 0xb4
                    0x00b4                  _IPC8bits = 0xb4
                    0x00b6                  IPC9 = 0xb6
                    0x00b6                  _IPC9 = 0xb6
                    0x00b6                  _IPC9bits = 0xb6
                    0x00b8                  IPC10 = 0xb8
                    0x00b8                  _IPC10 = 0xb8
                    0x00b8                  _IPC10bits = 0xb8
                    0x00ba                  IPC11 = 0xba
                    0x00ba                  _IPC11 = 0xba
                    0x00ba                  _IPC11bits = 0xba
                    0x00bc                  IPC12 = 0xbc
                    0x00bc                  _IPC12 = 0xbc
                    0x00bc                  _IPC12bits = 0xbc
                    0x00be                  IPC13 = 0xbe
                    0x00be                  _IPC13 = 0xbe
                    0x00be                  _IPC13bits = 0xbe
                    0x00c2                  IPC15 = 0xc2
                    0x00c2                  _IPC15 = 0xc2
                    0x00c2                  _IPC15bits = 0xc2
                    0x00c4                  IPC16 = 0xc4
                    0x00c4                  _IPC16 = 0xc4
                    0x00c4                  _IPC16bits = 0xc4
                    0x00c8                  IPC18 = 0xc8
                    0x00c8                  _IPC18 = 0xc8
                    0x00c8                  _IPC18bits = 0xc8
                    0x00ca                  IPC19 = 0xca
                    0x00ca                  _IPC19 = 0xca
                    0x00ca                  _IPC19bits = 0xca
                    0x00cc                  IPC20 = 0xcc
                    0x00cc                  _IPC20 = 0xcc
                    0x00cc                  _IPC20bits = 0xcc
                    0x00ce                  IPC21 = 0xce
                    0x00ce                  _IPC21 = 0xce
                    0x00ce                  _IPC21bits = 0xce
                    0x00d0                  IPC22 = 0xd0
                    0x00d0                  _IPC22 = 0xd0
                    0x00d0                  _IPC22bits = 0xd0
                    0x00d2                  IPC23 = 0xd2
                    0x00d2                  _IPC23 = 0xd2
                    0x00d2                  _IPC23bits = 0xd2
                    0x00e0                  INTTREG = 0xe0
                    0x00e0                  _INTTREG = 0xe0
                    0x00e0                  _INTTREGbits = 0xe0
                    0x0100                  TMR1 = 0x100
                    0x0100                  _TMR1 = 0x100
                    0x0102                  PR1 = 0x102
                    0x0102                  _PR1 = 0x102
                    0x0104                  T1CON = 0x104
                    0x0104                  _T1CON = 0x104
                    0x0104                  _T1CONbits = 0x104
                    0x0106                  TMR2 = 0x106
                    0x0106                  _TMR2 = 0x106
                    0x0108                  TMR3HLD = 0x108
                    0x0108                  _TMR3HLD = 0x108
                    0x010a                  TMR3 = 0x10a
                    0x010a                  _TMR3 = 0x10a
                    0x010c                  PR2 = 0x10c
                    0x010c                  _PR2 = 0x10c
                    0x010e                  PR3 = 0x10e
                    0x010e                  _PR3 = 0x10e
                    0x0110                  T2CON = 0x110
                    0x0110                  _T2CON = 0x110
                    0x0110                  _T2CONbits = 0x110
                    0x0112                  T3CON = 0x112
                    0x0112                  _T3CON = 0x112
                    0x0112                  _T3CONbits = 0x112
                    0x0114                  TMR4 = 0x114
                    0x0114                  _TMR4 = 0x114
                    0x0116                  TMR5HLD = 0x116
                    0x0116                  _TMR5HLD = 0x116
                    0x0118                  TMR5 = 0x118
                    0x0118                  _TMR5 = 0x118
                    0x011a                  PR4 = 0x11a
                    0x011a                  _PR4 = 0x11a
                    0x011c                  PR5 = 0x11c
                    0x011c                  _PR5 = 0x11c
                    0x011e                  T4CON = 0x11e
                    0x011e                  _T4CON = 0x11e
                    0x011e                  _T4CONbits = 0x11e
                    0x0120                  T5CON = 0x120
                    0x0120                  _T5CON = 0x120
                    0x0120                  _T5CONbits = 0x120
                    0x0140                  IC1CON1 = 0x140
                    0x0140                  _IC1CON1 = 0x140
                    0x0140                  _IC1CON1bits = 0x140
                    0x0142                  IC1CON2 = 0x142
                    0x0142                  _IC1CON2 = 0x142
                    0x0142                  _IC1CON2bits = 0x142
                    0x0144                  IC1BUF = 0x144
                    0x0144                  _IC1BUF = 0x144
                    0x0146                  IC1TMR = 0x146
                    0x0146                  _IC1TMR = 0x146
                    0x0148                  IC2CON1 = 0x148
                    0x0148                  _IC2CON1 = 0x148
                    0x0148                  _IC2CON1bits = 0x148
                    0x014a                  IC2CON2 = 0x14a
                    0x014a                  _IC2CON2 = 0x14a
                    0x014a                  _IC2CON2bits = 0x14a
                    0x014c                  IC2BUF = 0x14c
                    0x014c                  _IC2BUF = 0x14c
                    0x014e                  IC2TMR = 0x14e
                    0x014e                  _IC2TMR = 0x14e
                    0x0150                  IC3CON1 = 0x150
                    0x0150                  _IC3CON1 = 0x150
                    0x0150                  _IC3CON1bits = 0x150
                    0x0152                  IC3CON2 = 0x152
                    0x0152                  _IC3CON2 = 0x152
                    0x0152                  _IC3CON2bits = 0x152
                    0x0154                  IC3BUF = 0x154
                    0x0154                  _IC3BUF = 0x154
                    0x0156                  IC3TMR = 0x156
                    0x0156                  _IC3TMR = 0x156
                    0x0158                  IC4CON1 = 0x158
                    0x0158                  _IC4CON1 = 0x158
                    0x0158                  _IC4CON1bits = 0x158
                    0x015a                  IC4CON2 = 0x15a
                    0x015a                  _IC4CON2 = 0x15a
                    0x015a                  _IC4CON2bits = 0x15a
                    0x015c                  IC4BUF = 0x15c
                    0x015c                  _IC4BUF = 0x15c
                    0x015e                  IC4TMR = 0x15e
                    0x015e                  _IC4TMR = 0x15e
                    0x0160                  IC5CON1 = 0x160
                    0x0160                  _IC5CON1 = 0x160
                    0x0160                  _IC5CON1bits = 0x160
                    0x0162                  IC5CON2 = 0x162
                    0x0162                  _IC5CON2 = 0x162
                    0x0162                  _IC5CON2bits = 0x162
                    0x0164                  IC5BUF = 0x164
                    0x0164                  _IC5BUF = 0x164
                    0x0166                  IC5TMR = 0x166
                    0x0166                  _IC5TMR = 0x166
                    0x0168                  IC6CON1 = 0x168
                    0x0168                  _IC6CON1 = 0x168
                    0x0168                  _IC6CON1bits = 0x168
                    0x016a                  IC6CON2 = 0x16a
                    0x016a                  _IC6CON2 = 0x16a
                    0x016a                  _IC6CON2bits = 0x16a
                    0x016c                  IC6BUF = 0x16c
                    0x016c                  _IC6BUF = 0x16c
                    0x016e                  IC6TMR = 0x16e
                    0x016e                  _IC6TMR = 0x16e
                    0x0170                  IC7CON1 = 0x170
                    0x0170                  _IC7CON1 = 0x170
                    0x0170                  _IC7CON1bits = 0x170
                    0x0172                  IC7CON2 = 0x172
                    0x0172                  _IC7CON2 = 0x172
                    0x0172                  _IC7CON2bits = 0x172
                    0x0174                  IC7BUF = 0x174
                    0x0174                  _IC7BUF = 0x174
                    0x0176                  IC7TMR = 0x176
                    0x0176                  _IC7TMR = 0x176
                    0x0178                  IC8CON1 = 0x178
                    0x0178                  _IC8CON1 = 0x178
                    0x0178                  _IC8CON1bits = 0x178
                    0x017a                  IC8CON2 = 0x17a
                    0x017a                  _IC8CON2 = 0x17a
                    0x017a                  _IC8CON2bits = 0x17a
                    0x017c                  IC8BUF = 0x17c
                    0x017c                  _IC8BUF = 0x17c
                    0x017e                  IC8TMR = 0x17e
                    0x017e                  _IC8TMR = 0x17e
                    0x0180                  IC9CON1 = 0x180
                    0x0180                  _IC9CON1 = 0x180
                    0x0180                  _IC9CON1bits = 0x180
                    0x0182                  IC9CON2 = 0x182
                    0x0182                  _IC9CON2 = 0x182
                    0x0182                  _IC9CON2bits = 0x182
                    0x0184                  IC9BUF = 0x184
                    0x0184                  _IC9BUF = 0x184
                    0x0186                  IC9TMR = 0x186
                    0x0186                  _IC9TMR = 0x186
                    0x0190                  OC1CON1 = 0x190
                    0x0190                  _OC1CON1 = 0x190
                    0x0190                  _OC1CON1bits = 0x190
                    0x0192                  OC1CON2 = 0x192
                    0x0192                  _OC1CON2 = 0x192
                    0x0192                  _OC1CON2bits = 0x192
                    0x0194                  OC1RS = 0x194
                    0x0194                  _OC1RS = 0x194
                    0x0196                  OC1R = 0x196
                    0x0196                  _OC1R = 0x196
                    0x0198                  OC1TMR = 0x198
                    0x0198                  _OC1TMR = 0x198
                    0x019a                  OC2CON1 = 0x19a
                    0x019a                  _OC2CON1 = 0x19a
                    0x019a                  _OC2CON1bits = 0x19a
                    0x019c                  OC2CON2 = 0x19c
                    0x019c                  _OC2CON2 = 0x19c
                    0x019c                  _OC2CON2bits = 0x19c
                    0x019e                  OC2RS = 0x19e
                    0x019e                  _OC2RS = 0x19e
                    0x01a0                  OC2R = 0x1a0
                    0x01a0                  _OC2R = 0x1a0
                    0x01a2                  OC2TMR = 0x1a2
                    0x01a2                  _OC2TMR = 0x1a2
                    0x01a4                  OC3CON1 = 0x1a4
                    0x01a4                  _OC3CON1 = 0x1a4
                    0x01a4                  _OC3CON1bits = 0x1a4
                    0x01a6                  OC3CON2 = 0x1a6
                    0x01a6                  _OC3CON2 = 0x1a6
                    0x01a6                  _OC3CON2bits = 0x1a6
                    0x01a8                  OC3RS = 0x1a8
                    0x01a8                  _OC3RS = 0x1a8
                    0x01aa                  OC3R = 0x1aa
                    0x01aa                  _OC3R = 0x1aa
                    0x01ac                  OC3TMR = 0x1ac
                    0x01ac                  _OC3TMR = 0x1ac
                    0x01ae                  OC4CON1 = 0x1ae
                    0x01ae                  _OC4CON1 = 0x1ae
                    0x01ae                  _OC4CON1bits = 0x1ae
                    0x01b0                  OC4CON2 = 0x1b0
                    0x01b0                  _OC4CON2 = 0x1b0
                    0x01b0                  _OC4CON2bits = 0x1b0
                    0x01b2                  OC4RS = 0x1b2
                    0x01b2                  _OC4RS = 0x1b2
                    0x01b4                  OC4R = 0x1b4
                    0x01b4                  _OC4R = 0x1b4
                    0x01b6                  OC4TMR = 0x1b6
                    0x01b6                  _OC4TMR = 0x1b6
                    0x01b8                  OC5CON1 = 0x1b8
                    0x01b8                  _OC5CON1 = 0x1b8
                    0x01b8                  _OC5CON1bits = 0x1b8
                    0x01ba                  OC5CON2 = 0x1ba
                    0x01ba                  _OC5CON2 = 0x1ba
                    0x01ba                  _OC5CON2bits = 0x1ba
                    0x01bc                  OC5RS = 0x1bc
                    0x01bc                  _OC5RS = 0x1bc
                    0x01be                  OC5R = 0x1be
                    0x01be                  _OC5R = 0x1be
                    0x01c0                  OC5TMR = 0x1c0
                    0x01c0                  _OC5TMR = 0x1c0
                    0x01c2                  OC6CON1 = 0x1c2
                    0x01c2                  _OC6CON1 = 0x1c2
                    0x01c2                  _OC6CON1bits = 0x1c2
                    0x01c4                  OC6CON2 = 0x1c4
                    0x01c4                  _OC6CON2 = 0x1c4
                    0x01c4                  _OC6CON2bits = 0x1c4
                    0x01c6                  OC6RS = 0x1c6
                    0x01c6                  _OC6RS = 0x1c6
                    0x01c8                  OC6R = 0x1c8
                    0x01c8                  _OC6R = 0x1c8
                    0x01ca                  OC6TMR = 0x1ca
                    0x01ca                  _OC6TMR = 0x1ca
                    0x01cc                  OC7CON1 = 0x1cc
                    0x01cc                  _OC7CON1 = 0x1cc
                    0x01cc                  _OC7CON1bits = 0x1cc
                    0x01ce                  OC7CON2 = 0x1ce
                    0x01ce                  _OC7CON2 = 0x1ce
                    0x01ce                  _OC7CON2bits = 0x1ce
                    0x01d0                  OC7RS = 0x1d0
                    0x01d0                  _OC7RS = 0x1d0
                    0x01d2                  OC7R = 0x1d2
                    0x01d2                  _OC7R = 0x1d2
                    0x01d4                  OC7TMR = 0x1d4
                    0x01d4                  _OC7TMR = 0x1d4
                    0x01d6                  OC8CON1 = 0x1d6
                    0x01d6                  _OC8CON1 = 0x1d6
                    0x01d6                  _OC8CON1bits = 0x1d6
                    0x01d8                  OC8CON2 = 0x1d8
                    0x01d8                  _OC8CON2 = 0x1d8
                    0x01d8                  _OC8CON2bits = 0x1d8
                    0x01da                  OC8RS = 0x1da
                    0x01da                  _OC8RS = 0x1da
                    0x01dc                  OC8R = 0x1dc
                    0x01dc                  _OC8R = 0x1dc
                    0x01de                  OC8TMR = 0x1de
                    0x01de                  _OC8TMR = 0x1de
                    0x01e0                  OC9CON1 = 0x1e0
                    0x01e0                  _OC9CON1 = 0x1e0
                    0x01e0                  _OC9CON1bits = 0x1e0
                    0x01e2                  OC9CON2 = 0x1e2
                    0x01e2                  _OC9CON2 = 0x1e2
                    0x01e2                  _OC9CON2bits = 0x1e2
                    0x01e4                  OC9RS = 0x1e4
                    0x01e4                  _OC9RS = 0x1e4
                    0x01e6                  OC9R = 0x1e6
                    0x01e6                  _OC9R = 0x1e6
                    0x01e8                  OC9TMR = 0x1e8
                    0x01e8                  _OC9TMR = 0x1e8
                    0x0200                  I2C1RCV = 0x200
                    0x0200                  _I2C1RCV = 0x200
                    0x0202                  I2C1TRN = 0x202
                    0x0202                  _I2C1TRN = 0x202
                    0x0204                  I2C1BRG = 0x204
                    0x0204                  _I2C1BRG = 0x204
                    0x0206                  I2C1CON = 0x206
                    0x0206                  _I2C1CON = 0x206
                    0x0206                  _I2C1CONbits = 0x206
                    0x0208                  I2C1STAT = 0x208
                    0x0208                  _I2C1STAT = 0x208
                    0x0208                  _I2C1STATbits = 0x208
                    0x020a                  I2C1ADD = 0x20a
                    0x020a                  _I2C1ADD = 0x20a
                    0x020c                  I2C1MSK = 0x20c
                    0x020c                  _I2C1MSK = 0x20c
                    0x0210                  I2C2RCV = 0x210
                    0x0210                  _I2C2RCV = 0x210
                    0x0212                  I2C2TRN = 0x212
                    0x0212                  _I2C2TRN = 0x212
                    0x0214                  I2C2BRG = 0x214
                    0x0214                  _I2C2BRG = 0x214
                    0x0216                  I2C2CON = 0x216
                    0x0216                  _I2C2CON = 0x216
                    0x0216                  _I2C2CONbits = 0x216
                    0x0218                  I2C2STAT = 0x218
                    0x0218                  _I2C2STAT = 0x218
                    0x0218                  _I2C2STATbits = 0x218
                    0x021a                  I2C2ADD = 0x21a
                    0x021a                  _I2C2ADD = 0x21a
                    0x021c                  I2C2MSK = 0x21c
                    0x021c                  _I2C2MSK = 0x21c
                    0x0220                  U1MODE = 0x220
                    0x0220                  _U1MODE = 0x220
                    0x0220                  _U1MODEbits = 0x220
                    0x0222                  U1STA = 0x222
                    0x0222                  _U1STA = 0x222
                    0x0222                  _U1STAbits = 0x222
                    0x0224                  U1TXREG = 0x224
                    0x0224                  _U1TXREG = 0x224
                    0x0226                  U1RXREG = 0x226
                    0x0226                  _U1RXREG = 0x226
                    0x0228                  U1BRG = 0x228
                    0x0228                  _U1BRG = 0x228
                    0x0230                  U2MODE = 0x230
                    0x0230                  _U2MODE = 0x230
                    0x0230                  _U2MODEbits = 0x230
                    0x0232                  U2STA = 0x232
                    0x0232                  _U2STA = 0x232
                    0x0232                  _U2STAbits = 0x232
                    0x0234                  U2TXREG = 0x234
                    0x0234                  _U2TXREG = 0x234
                    0x0236                  U2RXREG = 0x236
                    0x0236                  _U2RXREG = 0x236
                    0x0238                  U2BRG = 0x238
                    0x0238                  _U2BRG = 0x238
                    0x0240                  SPI1STAT = 0x240
                    0x0240                  _SPI1STAT = 0x240
                    0x0240                  _SPI1STATbits = 0x240
                    0x0242                  SPI1CON1 = 0x242
                    0x0242                  _SPI1CON1 = 0x242
                    0x0242                  _SPI1CON1bits = 0x242
                    0x0244                  SPI1CON2 = 0x244
                    0x0244                  _SPI1CON2 = 0x244
                    0x0244                  _SPI1CON2bits = 0x244
                    0x0248                  SPI1BUF = 0x248
                    0x0248                  _SPI1BUF = 0x248
                    0x0250                  U3MODE = 0x250
                    0x0250                  _U3MODE = 0x250
                    0x0250                  _U3MODEbits = 0x250
                    0x0252                  U3STA = 0x252
                    0x0252                  _U3STA = 0x252
                    0x0252                  _U3STAbits = 0x252
                    0x0254                  U3TXREG = 0x254
                    0x0254                  _U3TXREG = 0x254
                    0x0256                  U3RXREG = 0x256
                    0x0256                  _U3RXREG = 0x256
                    0x0258                  U3BRG = 0x258
                    0x0258                  _U3BRG = 0x258
                    0x0260                  SPI2STAT = 0x260
                    0x0260                  _SPI2STAT = 0x260
                    0x0260                  _SPI2STATbits = 0x260
                    0x0262                  SPI2CON1 = 0x262
                    0x0262                  _SPI2CON1 = 0x262
                    0x0262                  _SPI2CON1bits = 0x262
                    0x0264                  SPI2CON2 = 0x264
                    0x0264                  _SPI2CON2 = 0x264
                    0x0264                  _SPI2CON2bits = 0x264
                    0x0268                  SPI2BUF = 0x268
                    0x0268                  _SPI2BUF = 0x268
                    0x0270                  I2C3RCV = 0x270
                    0x0270                  _I2C3RCV = 0x270
                    0x0272                  I2C3TRN = 0x272
                    0x0272                  _I2C3TRN = 0x272
                    0x0274                  I2C3BRG = 0x274
                    0x0274                  _I2C3BRG = 0x274
                    0x0276                  I2C3CON = 0x276
                    0x0276                  _I2C3CON = 0x276
                    0x0276                  _I2C3CONbits = 0x276
                    0x0278                  I2C3STAT = 0x278
                    0x0278                  _I2C3STAT = 0x278
                    0x0278                  _I2C3STATbits = 0x278
                    0x027a                  I2C3ADD = 0x27a
                    0x027a                  _I2C3ADD = 0x27a
                    0x027c                  I2C3MSK = 0x27c
                    0x027c                  _I2C3MSK = 0x27c
                    0x0280                  SPI3STAT = 0x280
                    0x0280                  _SPI3STAT = 0x280
                    0x0280                  _SPI3STATbits = 0x280
                    0x0282                  SPI3CON1 = 0x282
                    0x0282                  _SPI3CON1 = 0x282
                    0x0282                  _SPI3CON1bits = 0x282
                    0x0284                  SPI3CON2 = 0x284
                    0x0284                  _SPI3CON2 = 0x284
                    0x0284                  _SPI3CON2bits = 0x284
                    0x0288                  SPI3BUF = 0x288
                    0x0288                  _SPI3BUF = 0x288
                    0x02b0                  U4MODE = 0x2b0
                    0x02b0                  _U4MODE = 0x2b0
                    0x02b0                  _U4MODEbits = 0x2b0
                    0x02b2                  U4STA = 0x2b2
                    0x02b2                  _U4STA = 0x2b2
                    0x02b2                  _U4STAbits = 0x2b2
                    0x02b4                  U4TXREG = 0x2b4
                    0x02b4                  _U4TXREG = 0x2b4
                    0x02b6                  U4RXREG = 0x2b6
                    0x02b6                  _U4RXREG = 0x2b6
                    0x02b8                  U4BRG = 0x2b8
                    0x02b8                  _U4BRG = 0x2b8
                    0x02c8                  TRISB = 0x2c8
                    0x02c8                  _TRISB = 0x2c8
                    0x02c8                  _TRISBbits = 0x2c8
                    0x02ca                  PORTB = 0x2ca
                    0x02ca                  _PORTB = 0x2ca
                    0x02ca                  _PORTBbits = 0x2ca
                    0x02cc                  LATB = 0x2cc
                    0x02cc                  _LATB = 0x2cc
                    0x02cc                  _LATBbits = 0x2cc
                    0x02ce                  ODCB = 0x2ce
                    0x02ce                  _ODCB = 0x2ce
                    0x02ce                  _ODCBbits = 0x2ce
                    0x02d0                  TRISC = 0x2d0
                    0x02d0                  _TRISC = 0x2d0
                    0x02d0                  _TRISCbits = 0x2d0
                    0x02d2                  PORTC = 0x2d2
                    0x02d2                  _PORTC = 0x2d2
                    0x02d2                  _PORTCbits = 0x2d2
                    0x02d4                  LATC = 0x2d4
                    0x02d4                  _LATC = 0x2d4
                    0x02d4                  _LATCbits = 0x2d4
                    0x02d6                  ODCC = 0x2d6
                    0x02d6                  _ODCC = 0x2d6
                    0x02d6                  _ODCCbits = 0x2d6
                    0x02d8                  TRISD = 0x2d8
                    0x02d8                  _TRISD = 0x2d8
                    0x02d8                  _TRISDbits = 0x2d8
                    0x02da                  PORTD = 0x2da
                    0x02da                  _PORTD = 0x2da
                    0x02da                  _PORTDbits = 0x2da
                    0x02dc                  LATD = 0x2dc
                    0x02dc                  _LATD = 0x2dc
                    0x02dc                  _LATDbits = 0x2dc
                    0x02de                  ODCD = 0x2de
                    0x02de                  _ODCD = 0x2de
                    0x02de                  _ODCDbits = 0x2de
                    0x02e0                  TRISE = 0x2e0
                    0x02e0                  _TRISE = 0x2e0
                    0x02e0                  _TRISEbits = 0x2e0
                    0x02e2                  PORTE = 0x2e2
                    0x02e2                  _PORTE = 0x2e2
                    0x02e2                  _PORTEbits = 0x2e2
                    0x02e4                  LATE = 0x2e4
                    0x02e4                  _LATE = 0x2e4
                    0x02e4                  _LATEbits = 0x2e4
                    0x02e6                  ODCE = 0x2e6
                    0x02e6                  _ODCE = 0x2e6
                    0x02e6                  _ODCEbits = 0x2e6
                    0x02e8                  TRISF = 0x2e8
                    0x02e8                  _TRISF = 0x2e8
                    0x02e8                  _TRISFbits = 0x2e8
                    0x02ea                  PORTF = 0x2ea
                    0x02ea                  _PORTF = 0x2ea
                    0x02ea                  _PORTFbits = 0x2ea
                    0x02ec                  LATF = 0x2ec
                    0x02ec                  _LATF = 0x2ec
                    0x02ec                  _LATFbits = 0x2ec
                    0x02ee                  ODCF = 0x2ee
                    0x02ee                  _ODCF = 0x2ee
                    0x02ee                  _ODCFbits = 0x2ee
                    0x02f0                  TRISG = 0x2f0
                    0x02f0                  _TRISG = 0x2f0
                    0x02f0                  _TRISGbits = 0x2f0
                    0x02f2                  PORTG = 0x2f2
                    0x02f2                  _PORTG = 0x2f2
                    0x02f2                  _PORTGbits = 0x2f2
                    0x02f4                  LATG = 0x2f4
                    0x02f4                  _LATG = 0x2f4
                    0x02f4                  _LATGbits = 0x2f4
                    0x02f6                  ODCG = 0x2f6
                    0x02f6                  _ODCG = 0x2f6
                    0x02f6                  _ODCGbits = 0x2f6
                    0x02fc                  PADCFG1 = 0x2fc
                    0x02fc                  _PADCFG1 = 0x2fc
                    0x02fc                  _PADCFG1bits = 0x2fc
                    0x0300                  ADC1BUF0 = 0x300
                    0x0300                  _ADC1BUF0 = 0x300
                    0x0302                  ADC1BUF1 = 0x302
                    0x0302                  _ADC1BUF1 = 0x302
                    0x0304                  ADC1BUF2 = 0x304
                    0x0304                  _ADC1BUF2 = 0x304
                    0x0306                  ADC1BUF3 = 0x306
                    0x0306                  _ADC1BUF3 = 0x306
                    0x0308                  ADC1BUF4 = 0x308
                    0x0308                  _ADC1BUF4 = 0x308
                    0x030a                  ADC1BUF5 = 0x30a
                    0x030a                  _ADC1BUF5 = 0x30a
                    0x030c                  ADC1BUF6 = 0x30c
                    0x030c                  _ADC1BUF6 = 0x30c
                    0x030e                  ADC1BUF7 = 0x30e
                    0x030e                  _ADC1BUF7 = 0x30e
                    0x0310                  ADC1BUF8 = 0x310
                    0x0310                  _ADC1BUF8 = 0x310
                    0x0312                  ADC1BUF9 = 0x312
                    0x0312                  _ADC1BUF9 = 0x312
                    0x0314                  ADC1BUFA = 0x314
                    0x0314                  _ADC1BUFA = 0x314
                    0x0316                  ADC1BUFB = 0x316
                    0x0316                  _ADC1BUFB = 0x316
                    0x0318                  ADC1BUFC = 0x318
                    0x0318                  _ADC1BUFC = 0x318
                    0x031a                  ADC1BUFD = 0x31a
                    0x031a                  _ADC1BUFD = 0x31a
                    0x031c                  ADC1BUFE = 0x31c
                    0x031c                  _ADC1BUFE = 0x31c
                    0x031e                  ADC1BUFF = 0x31e
                    0x031e                  _ADC1BUFF = 0x31e
                    0x0320                  AD1CON1 = 0x320
                    0x0320                  _AD1CON1 = 0x320
                    0x0320                  _AD1CON1bits = 0x320
                    0x0322                  AD1CON2 = 0x322
                    0x0322                  _AD1CON2 = 0x322
                    0x0322                  _AD1CON2bits = 0x322
                    0x0324                  AD1CON3 = 0x324
                    0x0324                  _AD1CON3 = 0x324
                    0x0324                  _AD1CON3bits = 0x324
                    0x0328                  AD1CHS = 0x328
                    0x0328                  _AD1CHS = 0x328
                    0x0328                  _AD1CHSbits = 0x328
                    0x0328                  AD1CHS0 = 0x328
                    0x0328                  _AD1CHS0 = 0x328
                    0x0328                  _AD1CHS0bits = 0x328
                    0x032a                  AD1PCFGH = 0x32a
                    0x032a                  _AD1PCFGH = 0x32a
                    0x032a                  _AD1PCFGHbits = 0x32a
                    0x032c                  AD1PCFG = 0x32c
                    0x032c                  _AD1PCFG = 0x32c
                    0x032c                  _AD1PCFGbits = 0x32c
                    0x032c                  AD1PCFGL = 0x32c
                    0x032c                  _AD1PCFGL = 0x32c
                    0x032c                  _AD1PCFGLbits = 0x32c
                    0x0330                  AD1CSSL = 0x330
                    0x0330                  _AD1CSSL = 0x330
                    0x0330                  _AD1CSSLbits = 0x330
                    0x0332                  AD1CSSH = 0x332
                    0x0332                  _AD1CSSH = 0x332
                    0x0332                  _AD1CSSHbits = 0x332
                    0x033c                  CTMUCON = 0x33c
                    0x033c                  _CTMUCON = 0x33c
                    0x033c                  _CTMUCONbits = 0x33c
                    0x033e                  CTMUICON = 0x33e
                    0x033e                  _CTMUICON = 0x33e
                    0x033e                  _CTMUICONbits = 0x33e
                    0x0480                  U1OTGIR = 0x480
                    0x0480                  _U1OTGIR = 0x480
                    0x0480                  _U1OTGIRbits = 0x480
                    0x0482                  U1OTGIE = 0x482
                    0x0482                  _U1OTGIE = 0x482
                    0x0482                  _U1OTGIEbits = 0x482
                    0x0484                  U1OTGSTAT = 0x484
                    0x0484                  _U1OTGSTAT = 0x484
                    0x0484                  _U1OTGSTATbits = 0x484
                    0x0486                  U1OTGCON = 0x486
                    0x0486                  _U1OTGCON = 0x486
                    0x0486                  _U1OTGCONbits = 0x486
                    0x0488                  U1PWRC = 0x488
                    0x0488                  _U1PWRC = 0x488
                    0x0488                  _U1PWRCbits = 0x488
                    0x048a                  U1IR = 0x48a
                    0x048a                  _U1IR = 0x48a
                    0x048a                  _U1IRbits = 0x48a
                    0x048c                  U1IE = 0x48c
                    0x048c                  _U1IE = 0x48c
                    0x048c                  _U1IEbits = 0x48c
                    0x048e                  U1EIR = 0x48e
                    0x048e                  _U1EIR = 0x48e
                    0x048e                  _U1EIRbits = 0x48e
                    0x0490                  U1EIE = 0x490
                    0x0490                  _U1EIE = 0x490
                    0x0490                  _U1EIEbits = 0x490
                    0x0492                  U1STAT = 0x492
                    0x0492                  _U1STAT = 0x492
                    0x0492                  _U1STATbits = 0x492
                    0x0494                  U1CON = 0x494
                    0x0494                  _U1CON = 0x494
                    0x0494                  _U1CONbits = 0x494
                    0x0496                  U1ADDR = 0x496
                    0x0496                  _U1ADDR = 0x496
                    0x0496                  _U1ADDRbits = 0x496
                    0x0498                  U1BDTP1 = 0x498
                    0x0498                  _U1BDTP1 = 0x498
                    0x0498                  _U1BDTP1bits = 0x498
                    0x049a                  U1FRML = 0x49a
                    0x049a                  _U1FRML = 0x49a
                    0x049a                  _U1FRMLbits = 0x49a
                    0x049c                  U1FRMH = 0x49c
                    0x049c                  _U1FRMH = 0x49c
                    0x049c                  _U1FRMHbits = 0x49c
                    0x049e                  U1TOK = 0x49e
                    0x049e                  _U1TOK = 0x49e
                    0x049e                  _U1TOKbits = 0x49e
                    0x04a0                  U1SOF = 0x4a0
                    0x04a0                  _U1SOF = 0x4a0
                    0x04a0                  _U1SOFbits = 0x4a0
                    0x04a6                  U1CNFG1 = 0x4a6
                    0x04a6                  _U1CNFG1 = 0x4a6
                    0x04a6                  _U1CNFG1bits = 0x4a6
                    0x04a8                  U1CNFG2 = 0x4a8
                    0x04a8                  _U1CNFG2 = 0x4a8
                    0x04a8                  _U1CNFG2bits = 0x4a8
                    0x04aa                  U1EP0 = 0x4aa
                    0x04aa                  _U1EP0 = 0x4aa
                    0x04aa                  _U1EP0bits = 0x4aa
                    0x04ac                  U1EP1 = 0x4ac
                    0x04ac                  _U1EP1 = 0x4ac
                    0x04ac                  _U1EP1bits = 0x4ac
                    0x04ae                  U1EP2 = 0x4ae
                    0x04ae                  _U1EP2 = 0x4ae
                    0x04ae                  _U1EP2bits = 0x4ae
                    0x04b0                  U1EP3 = 0x4b0
                    0x04b0                  _U1EP3 = 0x4b0
                    0x04b0                  _U1EP3bits = 0x4b0
                    0x04b2                  U1EP4 = 0x4b2
                    0x04b2                  _U1EP4 = 0x4b2
                    0x04b2                  _U1EP4bits = 0x4b2
                    0x04b4                  U1EP5 = 0x4b4
                    0x04b4                  _U1EP5 = 0x4b4
                    0x04b4                  _U1EP5bits = 0x4b4
                    0x04b6                  U1EP6 = 0x4b6
                    0x04b6                  _U1EP6 = 0x4b6
                    0x04b6                  _U1EP6bits = 0x4b6
                    0x04b8                  U1EP7 = 0x4b8
                    0x04b8                  _U1EP7 = 0x4b8
                    0x04b8                  _U1EP7bits = 0x4b8
                    0x04ba                  U1EP8 = 0x4ba
                    0x04ba                  _U1EP8 = 0x4ba
                    0x04ba                  _U1EP8bits = 0x4ba
                    0x04bc                  U1EP9 = 0x4bc
                    0x04bc                  _U1EP9 = 0x4bc
                    0x04bc                  _U1EP9bits = 0x4bc
                    0x04be                  U1EP10 = 0x4be
                    0x04be                  _U1EP10 = 0x4be
                    0x04be                  _U1EP10bits = 0x4be
                    0x04c0                  U1EP11 = 0x4c0
                    0x04c0                  _U1EP11 = 0x4c0
                    0x04c0                  _U1EP11bits = 0x4c0
                    0x04c2                  U1EP12 = 0x4c2
                    0x04c2                  _U1EP12 = 0x4c2
                    0x04c2                  _U1EP12bits = 0x4c2
                    0x04c4                  U1EP13 = 0x4c4
                    0x04c4                  _U1EP13 = 0x4c4
                    0x04c4                  _U1EP13bits = 0x4c4
                    0x04c6                  U1EP14 = 0x4c6
                    0x04c6                  _U1EP14 = 0x4c6
                    0x04c6                  _U1EP14bits = 0x4c6
                    0x04c8                  U1EP15 = 0x4c8
                    0x04c8                  _U1EP15 = 0x4c8
                    0x04c8                  _U1EP15bits = 0x4c8
                    0x04cc                  U1PWMRRS = 0x4cc
                    0x04cc                  _U1PWMRRS = 0x4cc
                    0x04cc                  _U1PWMRRSbits = 0x4cc
                    0x04ce                  U1PWMCON = 0x4ce
                    0x04ce                  _U1PWMCON = 0x4ce
                    0x04ce                  _U1PWMCONbits = 0x4ce
                    0x0600                  PMCON = 0x600
                    0x0600                  _PMCON = 0x600
                    0x0600                  _PMCONbits = 0x600
                    0x0602                  PMMODE = 0x602
                    0x0602                  _PMMODE = 0x602
                    0x0602                  _PMMODEbits = 0x602
                    0x0604                  PMADDR = 0x604
                    0x0604                  _PMADDR = 0x604
                    0x0604                  _PMADDRbits = 0x604
                    0x0604                  PMDOUT1 = 0x604
                    0x0604                  _PMDOUT1 = 0x604
                    0x0604                  _PMDOUT1bits = 0x604
                    0x0606                  PMDOUT2 = 0x606
                    0x0606                  _PMDOUT2 = 0x606
                    0x0608                  PMDIN1 = 0x608
                    0x0608                  _PMDIN1 = 0x608
                    0x060a                  PMDIN2 = 0x60a
                    0x060a                  _PMDIN2 = 0x60a
                    0x060c                  PMAEN = 0x60c
                    0x060c                  _PMAEN = 0x60c
                    0x060c                  _PMAENbits = 0x60c
                    0x060e                  PMSTAT = 0x60e
                    0x060e                  _PMSTAT = 0x60e
                    0x060e                  _PMSTATbits = 0x60e
                    0x0620                  ALRMVAL = 0x620
                    0x0620                  _ALRMVAL = 0x620
                    0x0622                  ALCFGRPT = 0x622
                    0x0622                  _ALCFGRPT = 0x622
                    0x0622                  _ALCFGRPTbits = 0x622
                    0x0624                  RTCVAL = 0x624
                    0x0624                  _RTCVAL = 0x624
                    0x0626                  RCFGCAL = 0x626
                    0x0626                  _RCFGCAL = 0x626
                    0x0626                  _RCFGCALbits = 0x626
                    0x0630                  CMSTAT = 0x630
                    0x0630                  _CMSTAT = 0x630
                    0x0630                  _CMSTATbits = 0x630
                    0x0632                  CVRCON = 0x632
                    0x0632                  _CVRCON = 0x632
                    0x0632                  _CVRCONbits = 0x632
                    0x0634                  CM1CON = 0x634
                    0x0634                  _CM1CON = 0x634
                    0x0634                  _CM1CONbits = 0x634
                    0x0636                  CM2CON = 0x636
                    0x0636                  _CM2CON = 0x636
                    0x0636                  _CM2CONbits = 0x636
                    0x0638                  CM3CON = 0x638
                    0x0638                  _CM3CON = 0x638
                    0x0638                  _CM3CONbits = 0x638
                    0x0640                  CRCCON = 0x640
                    0x0640                  _CRCCON = 0x640
                    0x0640                  _CRCCONbits = 0x640
                    0x0642                  CRCXOR = 0x642
                    0x0642                  _CRCXOR = 0x642
                    0x0642                  _CRCXORbits = 0x642
                    0x0644                  CRCDAT = 0x644
                    0x0644                  _CRCDAT = 0x644
                    0x0646                  CRCWDAT = 0x646
                    0x0646                  _CRCWDAT = 0x646
                    0x0680                  RPINR0 = 0x680
                    0x0680                  _RPINR0 = 0x680
                    0x0680                  _RPINR0bits = 0x680
                    0x0682                  RPINR1 = 0x682
                    0x0682                  _RPINR1 = 0x682
                    0x0682                  _RPINR1bits = 0x682
                    0x0684                  RPINR2 = 0x684
                    0x0684                  _RPINR2 = 0x684
                    0x0684                  _RPINR2bits = 0x684
                    0x0686                  RPINR3 = 0x686
                    0x0686                  _RPINR3 = 0x686
                    0x0686                  _RPINR3bits = 0x686
                    0x0688                  RPINR4 = 0x688
                    0x0688                  _RPINR4 = 0x688
                    0x0688                  _RPINR4bits = 0x688
                    0x068e                  RPINR7 = 0x68e
                    0x068e                  _RPINR7 = 0x68e
                    0x068e                  _RPINR7bits = 0x68e
                    0x0690                  RPINR8 = 0x690
                    0x0690                  _RPINR8 = 0x690
                    0x0690                  _RPINR8bits = 0x690
                    0x0692                  RPINR9 = 0x692
                    0x0692                  _RPINR9 = 0x692
                    0x0692                  _RPINR9bits = 0x692
                    0x0694                  RPINR10 = 0x694
                    0x0694                  _RPINR10 = 0x694
                    0x0694                  _RPINR10bits = 0x694
                    0x0696                  RPINR11 = 0x696
                    0x0696                  _RPINR11 = 0x696
                    0x0696                  _RPINR11bits = 0x696
                    0x069e                  RPINR15 = 0x69e
                    0x069e                  _RPINR15 = 0x69e
                    0x069e                  _RPINR15bits = 0x69e
                    0x06a2                  RPINR17 = 0x6a2
                    0x06a2                  _RPINR17 = 0x6a2
                    0x06a2                  _RPINR17bits = 0x6a2
                    0x06a4                  RPINR18 = 0x6a4
                    0x06a4                  _RPINR18 = 0x6a4
                    0x06a4                  _RPINR18bits = 0x6a4
                    0x06a6                  RPINR19 = 0x6a6
                    0x06a6                  _RPINR19 = 0x6a6
                    0x06a6                  _RPINR19bits = 0x6a6
                    0x06a8                  RPINR20 = 0x6a8
                    0x06a8                  _RPINR20 = 0x6a8
                    0x06a8                  _RPINR20bits = 0x6a8
                    0x06aa                  RPINR21 = 0x6aa
                    0x06aa                  _RPINR21 = 0x6aa
                    0x06aa                  _RPINR21bits = 0x6aa
                    0x06ac                  RPINR22 = 0x6ac
                    0x06ac                  _RPINR22 = 0x6ac
                    0x06ac                  _RPINR22bits = 0x6ac
                    0x06ae                  RPINR23 = 0x6ae
                    0x06ae                  _RPINR23 = 0x6ae
                    0x06ae                  _RPINR23bits = 0x6ae
                    0x06b6                  RPINR27 = 0x6b6
                    0x06b6                  _RPINR27 = 0x6b6
                    0x06b6                  _RPINR27bits = 0x6b6
                    0x06b8                  RPINR28 = 0x6b8
                    0x06b8                  _RPINR28 = 0x6b8
                    0x06b8                  _RPINR28bits = 0x6b8
                    0x06ba                  RPINR29 = 0x6ba
                    0x06ba                  _RPINR29 = 0x6ba
                    0x06ba                  _RPINR29bits = 0x6ba
                    0x06c0                  RPOR0 = 0x6c0
                    0x06c0                  _RPOR0 = 0x6c0
                    0x06c0                  _RPOR0bits = 0x6c0
                    0x06c2                  RPOR1 = 0x6c2
                    0x06c2                  _RPOR1 = 0x6c2
                    0x06c2                  _RPOR1bits = 0x6c2
                    0x06c4                  RPOR2 = 0x6c4
                    0x06c4                  _RPOR2 = 0x6c4
                    0x06c4                  _RPOR2bits = 0x6c4
                    0x06c6                  RPOR3 = 0x6c6
                    0x06c6                  _RPOR3 = 0x6c6
                    0x06c6                  _RPOR3bits = 0x6c6
                    0x06c8                  RPOR4 = 0x6c8
                    0x06c8                  _RPOR4 = 0x6c8
                    0x06c8                  _RPOR4bits = 0x6c8
                    0x06ca                  RPOR5 = 0x6ca
                    0x06ca                  _RPOR5 = 0x6ca
                    0x06ca                  _RPOR5bits = 0x6ca
                    0x06cc                  RPOR6 = 0x6cc
                    0x06cc                  _RPOR6 = 0x6cc
                    0x06cc                  _RPOR6bits = 0x6cc
                    0x06ce                  RPOR7 = 0x6ce
                    0x06ce                  _RPOR7 = 0x6ce
                    0x06ce                  _RPOR7bits = 0x6ce
                    0x06d0                  RPOR8 = 0x6d0
                    0x06d0                  _RPOR8 = 0x6d0
                    0x06d0                  _RPOR8bits = 0x6d0
                    0x06d2                  RPOR9 = 0x6d2
                    0x06d2                  _RPOR9 = 0x6d2
                    0x06d2                  _RPOR9bits = 0x6d2
                    0x06d4                  RPOR10 = 0x6d4
                    0x06d4                  _RPOR10 = 0x6d4
                    0x06d4                  _RPOR10bits = 0x6d4
                    0x06d6                  RPOR11 = 0x6d6
                    0x06d6                  _RPOR11 = 0x6d6
                    0x06d6                  _RPOR11bits = 0x6d6
                    0x06d8                  RPOR12 = 0x6d8
                    0x06d8                  _RPOR12 = 0x6d8
                    0x06d8                  _RPOR12bits = 0x6d8
                    0x06da                  RPOR13 = 0x6da
                    0x06da                  _RPOR13 = 0x6da
                    0x06da                  _RPOR13bits = 0x6da
                    0x06dc                  RPOR14 = 0x6dc
                    0x06dc                  _RPOR14 = 0x6dc
                    0x06dc                  _RPOR14bits = 0x6dc
                    0x06de                  RPOR15 = 0x6de
                    0x06de                  _RPOR15 = 0x6de
                    0x06de                  _RPOR15bits = 0x6de
                    0x0740                  RCON = 0x740
                    0x0740                  _RCON = 0x740
                    0x0740                  _RCONbits = 0x740
                    0x0742                  OSCCON = 0x742
                    0x0742                  _OSCCON = 0x742
                    0x0742                  _OSCCONbits = 0x742
                    0x0742                  OSCCONL = 0x742
                    0x0742                  _OSCCONL = 0x742
                    0x0743                  OSCCONH = 0x743
                    0x0743                  _OSCCONH = 0x743
                    0x0744                  CLKDIV = 0x744
                    0x0744                  _CLKDIV = 0x744
                    0x0744                  _CLKDIVbits = 0x744
                    0x0748                  OSCTUN = 0x748
                    0x0748                  _OSCTUN = 0x748
                    0x0748                  _OSCTUNbits = 0x748
                    0x074e                  REFOCON = 0x74e
                    0x074e                  _REFOCON = 0x74e
                    0x074e                  _REFOCONbits = 0x74e
                    0x0760                  NVMCON = 0x760
                    0x0760                  _NVMCON = 0x760
                    0x0760                  _NVMCONbits = 0x760
                    0x0766                  NVMKEY = 0x766
                    0x0766                  _NVMKEY = 0x766
                    0x0770                  PMD1 = 0x770
                    0x0770                  _PMD1 = 0x770
                    0x0770                  _PMD1bits = 0x770
                    0x0772                  PMD2 = 0x772
                    0x0772                  _PMD2 = 0x772
                    0x0772                  _PMD2bits = 0x772
                    0x0774                  PMD3 = 0x774
                    0x0774                  _PMD3 = 0x774
                    0x0774                  _PMD3bits = 0x774
                    0x0776                  PMD4 = 0x776
                    0x0776                  _PMD4 = 0x776
                    0x0776                  _PMD4bits = 0x776
                    0x0778                  PMD5 = 0x778
                    0x0778                  _PMD5 = 0x778
                    0x0778                  _PMD5bits = 0x778
                    0x077a                  PMD6 = 0x77a
                    0x077a                  _PMD6 = 0x77a
                    0x077a                  _PMD6bits = 0x77a
                    0x0144                  IC1 = 0x144
                    0x0144                  _IC1 = 0x144
                    0x014c                  IC2 = 0x14c
                    0x014c                  _IC2 = 0x14c
                    0x0154                  IC3 = 0x154
                    0x0154                  _IC3 = 0x154
                    0x015c                  IC4 = 0x15c
                    0x015c                  _IC4 = 0x15c
                    0x0164                  IC5 = 0x164
                    0x0164                  _IC5 = 0x164
                    0x016c                  IC6 = 0x16c
                    0x016c                  _IC6 = 0x16c
                    0x0174                  IC7 = 0x174
                    0x0174                  _IC7 = 0x174
                    0x017c                  IC8 = 0x17c
                    0x017c                  _IC8 = 0x17c
                    0x0194                  OC1 = 0x194
                    0x0194                  _OC1 = 0x194
                    0x019e                  OC2 = 0x19e
                    0x019e                  _OC2 = 0x19e
                    0x01a8                  OC3 = 0x1a8
                    0x01a8                  _OC3 = 0x1a8
                    0x01b2                  OC4 = 0x1b2
                    0x01b2                  _OC4 = 0x1b2
                    0x01bc                  OC5 = 0x1bc
                    0x01bc                  _OC5 = 0x1bc
                    0x01c6                  OC6 = 0x1c6
                    0x01c6                  _OC6 = 0x1c6
                    0x01d0                  OC7 = 0x1d0
                    0x01d0                  _OC7 = 0x1d0
                    0x01da                  OC8 = 0x1da
                    0x01da                  _OC8 = 0x1da
                    0x0240                  SPI1 = 0x240
                    0x0240                  _SPI1 = 0x240
                    0x0260                  SPI2 = 0x260
                    0x0260                  _SPI2 = 0x260
                    0x0220                  UART1 = 0x220
                    0x0220                  _UART1 = 0x220
                    0x0230                  UART2 = 0x230
                    0x0230                  _UART2 = 0x230
                    0x0001                  __MPLAB_BUILD = 0x1
START GROUP
LOAD c:/program files/microchip/mplabc30/v3.31/bin/bin/../../lib\libpic30-coff.a
LOAD c:/program files/microchip/mplabc30/v3.31/bin/bin/../../lib\libm-coff.a
LOAD c:/program files/microchip/mplabc30/v3.31/bin/bin/../../lib\libc-coff.a
END GROUP
OUTPUT(.\Build\PIC24_256\CMRI.cof coff-pic30)
LOAD jump_table
LOAD data_init
LOAD default_isr
LOAD heap

__c30_signature
                  0x000000        0x1e0
 __c30_signature
                  0x000000          0x6 Objects\PIC24_256\SE_CBKE.o
 __c30_signature
                  0x000006          0x6 Objects\PIC24_256\rtcc.o
 __c30_signature
                  0x00000c          0x6 Objects\PIC24_256\sralloc.o
 __c30_signature
                  0x000012          0x6 Objects\PIC24_256\Console.o
 __c30_signature
                  0x000018          0x6 Objects\PIC24_256\HAL.o
 __c30_signature
                  0x00001e          0x6 Objects\PIC24_256\MSPI.o
 __c30_signature
                  0x000024          0x6 Objects\PIC24_256\SE_Display.o
 __c30_signature
                  0x00002a          0x6 Objects\PIC24_256\SE_Profile.o
 __c30_signature
                  0x000030          0x6 Objects\PIC24_256\SymbolTime.o
 __c30_signature
                  0x000036          0x6 Objects\PIC24_256\zAIL.o
 __c30_signature
                  0x00003c          0x6 Objects\PIC24_256\zAPS.o
 __c30_signature
                  0x000042          0x6 Objects\PIC24_256\ZigbeeTasks.o
 __c30_signature
                  0x000048          0x6 Objects\PIC24_256\zMAC_MRF24J40.o
 __c30_signature
                  0x00004e          0x6 Objects\PIC24_256\zNVM.o
 __c30_signature
                  0x000054          0x6 Objects\PIC24_256\zNWK.o
 __c30_signature
                  0x00005a          0x6 Objects\PIC24_256\zPHY_MRF24J40.o
 __c30_signature
                  0x000060          0x6 Objects\PIC24_256\zSecurity_MRF24J40.o
 __c30_signature
                  0x000066          0x6 Objects\PIC24_256\zStub_APS.o
 __c30_signature
                  0x00006c          0x6 Objects\PIC24_256\zZDO.o
 __c30_signature
                  0x000072          0x6 Objects\PIC24_256\App_Common.o
 __c30_signature
                  0x000078          0x6 Objects\PIC24_256\App_MTR.o
 __c30_signature
                  0x00007e          0x6 Objects\PIC24_256\SE_MTR.o
 __c30_signature
                  0x000084          0x6 Objects\PIC24_256\merge_main.o
 __c30_signature
                  0x00008a          0x6 Objects\PIC24_256\Menu_MTR.o
 __c30_signature
                  0x000090          0x6 Objects\PIC24_256\SE_Certificate_MTR.o
 __c30_signature
                  0x000096          0x6 Objects\PIC24_256\myZigBee_ESP.o
 __c30_signature
                  0x00009c          0x6 Objects\PIC24_256\App_ESP.o
 __c30_signature
                  0x0000a2          0x6 Objects\PIC24_256\Menu_ESP.o
 __c30_signature
                  0x0000a8          0x6 Objects\PIC24_256\SE_ESP.o
 __c30_signature
                  0x0000ae          0x6 Objects\PIC24_256\myZigBee_MTR.o
 __c30_signature
                  0x0000b4          0x6 Objects\PIC24_256\SE_Certificate_ESP.o
 __c30_signature
                  0x0000ba          0x6 Objects\PIC24_256\msdlclusterhanddle.o
 __c30_signature
                  0x0000c0          0x6 Objects\PIC24_256\monitor.o
 __c30_signature
                  0x0000c6          0x6 Objects\PIC24_256\comm.o
 __c30_signature
                  0x0000cc          0x6 Objects\PIC24_256\Delay.o
 __c30_signature
                  0x0000d2          0x6 Objects\PIC24_256\Log.o
 __c30_signature
                  0x0000d8          0x6 E:\Dropbox\MyWork\SEPV1.1\Source\CMRI\SEP Progressive merge MTR Merge\Source\Common\Lib\ZCL24bitLib.a(ZCL_Utility.o)
 __c30_signature
                  0x0000de          0x6 E:\Dropbox\MyWork\SEPV1.1\Source\CMRI\SEP Progressive merge MTR Merge\Source\Common\Lib\ZCL24bitLib.a(ZCL_Foundation.o)
 __c30_signature
                  0x0000e4          0x6 E:\Dropbox\MyWork\SEPV1.1\Source\CMRI\SEP Progressive merge MTR Merge\Source\Common\Lib\ZCL24bitLib.a(ZCL_Time.o)
 __c30_signature
                  0x0000ea          0x6 E:\Dropbox\MyWork\SEPV1.1\Source\CMRI\SEP Progressive merge MTR Merge\Source\Common\Lib\ZCL24bitLib.a(ZCL_Groups.o)
 __c30_signature
                  0x0000f0          0x6 E:\Dropbox\MyWork\SEPV1.1\Source\CMRI\SEP Progressive merge MTR Merge\Source\Common\Lib\ZCL24bitLib.a(ZCL_Scenes.o)
 __c30_signature
                  0x0000f6          0x6 E:\Dropbox\MyWork\SEPV1.1\Source\CMRI\SEP Progressive merge MTR Merge\Source\Common\Lib\ZCL24bitLib.a(ZCL_Identify.o)
 __c30_signature
                  0x0000fc          0x6 E:\Dropbox\MyWork\SEPV1.1\Source\CMRI\SEP Progressive merge MTR Merge\Source\Common\Lib\ZCL24bitLib.a(ZCL_Basic.o)
 __c30_signature
                  0x000102          0x6 E:\Dropbox\MyWork\SEPV1.1\Source\CMRI\SEP Progressive merge MTR Merge\Source\Common\Lib\ZCL24bitLib.a(ZCL_Commissioning.o)
 __c30_signature
                  0x000108          0x6 E:\Dropbox\MyWork\SEPV1.1\Source\CMRI\SEP Progressive merge MTR Merge\Source\Common\Lib\ZCL24bitLib.a(ZCL_Power_Configuration.o)
 __c30_signature
                  0x00010e          0x6 E:\Dropbox\MyWork\SEPV1.1\Source\CMRI\SEP Progressive merge MTR Merge\Source\Common\Lib\ZCL24bitLib.a(ZCL_Alarm.o)
 __c30_signature
                  0x000114          0x6 E:\Dropbox\MyWork\SEPV1.1\Source\CMRI\SEP Progressive merge MTR Merge\Source\Common\Lib\ZCL24bitLib.a(ZCL_Metering.o)
 __c30_signature
                  0x00011a          0x6 E:\Dropbox\MyWork\SEPV1.1\Source\CMRI\SEP Progressive merge MTR Merge\Source\Common\Lib\ZCL24bitLib.a(ZCL_Price.o)
 __c30_signature
                  0x000120          0x6 E:\Dropbox\MyWork\SEPV1.1\Source\CMRI\SEP Progressive merge MTR Merge\Source\Common\Lib\ZCL24bitLib.a(ZCL_Message.o)
 __c30_signature
                  0x000126          0x6 E:\Dropbox\MyWork\SEPV1.1\Source\CMRI\SEP Progressive merge MTR Merge\Source\Common\Lib\ZCL24bitLib.a(ZCL_DRLC.o)
 __c30_signature
                  0x00012c          0x6 c:/program files/microchip/mplabc30/v3.31/bin/bin/../../lib\libpic30-coff.a(crt0_standard.o)
 __c30_signature
                  0x000132          0x6 c:/program files/microchip/mplabc30/v3.31/bin/bin/../../lib\libpic30-coff.a(data_init_standard.o)
 __c30_signature
                  0x000138          0x6 c:/program files/microchip/mplabc30/v3.31/bin/bin/../../lib\libm-coff.a(umodsi3.o)
 __c30_signature
                  0x00013e          0x6 c:/program files/microchip/mplabc30/v3.31/bin/bin/../../lib\libm-coff.a(udivsi3.o)
 __c30_signature
                  0x000144          0x6 c:/program files/microchip/mplabc30/v3.31/bin/bin/../../lib\libm-coff.a(muldi3.o)
 __c30_signature
                  0x00014a          0x6 c:/program files/microchip/mplabc30/v3.31/bin/bin/../../lib\libm-coff.a(divmoddi3.o)
 __c30_signature
                  0x000150          0x6 c:/program files/microchip/mplabc30/v3.31/bin/bin/../../lib\libm-coff.a(floatsisf.o)
 __c30_signature
                  0x000156          0x6 c:/program files/microchip/mplabc30/v3.31/bin/bin/../../lib\libm-coff.a(addsf3.o)
 __c30_signature
                  0x00015c          0x6 c:/program files/microchip/mplabc30/v3.31/bin/bin/../../lib\libm-coff.a(fgtge.o)
 __c30_signature
                  0x000162          0x6 c:/program files/microchip/mplabc30/v3.31/bin/bin/../../lib\libm-coff.a(mulsf3.o)
 __c30_signature
                  0x000168          0x6 c:/program files/microchip/mplabc30/v3.31/bin/bin/../../lib\libm-coff.a(fixunssfsi.o)
 __c30_signature
                  0x00016e          0x6 c:/program files/microchip/mplabc30/v3.31/bin/bin/../../lib\libm-coff.a(umuldi3.o)
 __c30_signature
                  0x000174          0x6 c:/program files/microchip/mplabc30/v3.31/bin/bin/../../lib\libm-coff.a(fpack.o)
 __c30_signature
                  0x00017a          0x6 c:/program files/microchip/mplabc30/v3.31/bin/bin/../../lib\libm-coff.a(funpack2.o)
 __c30_signature
                  0x000180          0x6 c:/program files/microchip/mplabc30/v3.31/bin/bin/../../lib\libm-coff.a(futil.o)
 __c30_signature
                  0x000186          0x6 c:/program files/microchip/mplabc30/v3.31/bin/bin/../../lib\libm-coff.a(fcompare.o)
 __c30_signature
                  0x00018c          0x6 c:/program files/microchip/mplabc30/v3.31/bin/bin/../../lib\libm-coff.a(funpack.o)
 __c30_signature
                  0x000192          0x6 c:/program files/microchip/mplabc30/v3.31/bin/bin/../../lib\libc-coff.a(malloc.XXo)
 __c30_signature
                  0x000198          0x6 c:/program files/microchip/mplabc30/v3.31/bin/bin/../../lib\libc-coff.a(memset.XXo)
 __c30_signature
                  0x00019e          0x6 c:/program files/microchip/mplabc30/v3.31/bin/bin/../../lib\libc-coff.a(memcmp.XXo)
 __c30_signature
                  0x0001a4          0x6 c:/program files/microchip/mplabc30/v3.31/bin/bin/../../lib\libc-coff.a(memcpy.XXo)
 __c30_signature
                  0x0001aa          0x6 c:/program files/microchip/mplabc30/v3.31/bin/bin/../../lib\libc-coff.a(sprintf_cdnopuxX.XXo)
 __c30_signature
                  0x0001b0          0x6 c:/program files/microchip/mplabc30/v3.31/bin/bin/../../lib\libc-coff.a(doprnt_cdnopuxX.XXo)
 __c30_signature
                  0x0001b6          0x6 c:/program files/microchip/mplabc30/v3.31/bin/bin/../../lib\libc-coff.a(fputc.XXo)
 __c30_signature
                  0x0001bc          0x6 c:/program files/microchip/mplabc30/v3.31/bin/bin/../../lib\libc-coff.a(_iob.XXo)
 __c30_signature
                  0x0001c2          0x6 c:/program files/microchip/mplabc30/v3.31/bin/bin/../../lib\libc-coff.a(flsbuf.XXo)
 __c30_signature
                  0x0001c8          0x6 c:/program files/microchip/mplabc30/v3.31/bin/bin/../../lib\libpic30-coff.a(sbrk.o)
 __c30_signature
                  0x0001ce          0x6 c:/program files/microchip/mplabc30/v3.31/bin/bin/../../lib\libpic30-coff.a(write.o)
 __c30_signature
                  0x0001d4          0x6 c:/program files/microchip/mplabc30/v3.31/bin/bin/../../lib\libpic30-coff.a(brk.o)
 __c30_signature
                  0x0001da          0x6 c:/program files/microchip/mplabc30/v3.31/bin/bin/../../lib\libpic30-coff.a(c30_uart.o)

.nbss               0x0800          0x8
 .nbss              0x0800          0x6 E:\Dropbox\MyWork\SEPV1.1\Source\CMRI\SEP Progressive merge MTR Merge\Source\Common\Lib\TLS2130.a(lcd.o)
 .nbss              0x0806          0x2 E:\Dropbox\MyWork\SEPV1.1\Source\CMRI\SEP Progressive merge MTR Merge\Source\Common\Lib\TLS2130.a(delay.o)
                    0x0806                  temp_count

.bss                0x0808        0xcb8
 .bss               0x0808        0x698 Objects\PIC24_256\SE_Profile.o
                    0x080c                  mainsVoltageDwellTripPointValue
                    0x080e                  CommRestartTime
                    0x0812                  RestartDeviceCmdPayload
                    0x0816                  ReportingBgTasks
                    0x082c                  displayQuotient
                    0x0830                  remainderArray
                    0x083a                  attributeDataStorageInRAM_ESP
                    0x09c3                  attributeDataStorageInRAM_MTR
                    0x0b44                  InitiatorDeviceInfo
                    0x0b50                  AppGroupsNameTable
                    0x0bd0                  App_ScenesTable
 .bss               0x0ea0        0x620 Objects\PIC24_256\msdlclusterhanddle.o
                    0x0ea0                  MACAddMeter
                    0x103a                  MyCommandFlag
                    0x103c                  EndDeviceAnounceTable
                    0x123c                  PerMissionEndDeviceAnounceTable
                    0x143c                  ExtPANIDStatus
                    0x1440                  UrSeqNumner
                    0x1442                  UrCommand
                    0x1444                  Urlen
                    0x1446                  UrRW
                    0x1448                  Urp_dataInd
                    0x144a                  ListOfExtendedPANIdinVicinity
                    0x14a4                  RestartDeviceAfterCommission
                    0x14a7                  Uart2Datalen
                    0x14a8                  TimeOutStartTime
                    0x14ac                  ACKTimeOut
                    0x14b0                  TotalMeterGetConnceted1
                    0x14b4                  TotalMeterGetConnceted2
                    0x14b8                  PrvSendIeeeAddr

.data               0x14c0        0x42a
 .data              0x14c0        0x42a Objects\PIC24_256\SE_ESP.o
                    0x14c0                  pESPClusterServerDefinition
                    0x14d6                  pESPClusterClientDefinition
                    0x14e8                  ESP_DeviceServerinfo
                    0x14ec                  pAppListOfDeviceServerInfo_ESP
                    0x14ee                  ESP_DeviceClientinfo
                    0x14f2                  pAppListOfDeviceClientInfo_ESP
                    0x14f4                  App_AttributeStorageTable_ESP
                    0x154e                  PublishPriceCommandPayloadDefaultValue
                    0x1582                  PublishPriceRequestFrameValue
                    0x159a                  ListOfPriceEvents
                    0x1666                  ZCL_Message_DisplayMessageTable
                    0x173a                  displayMessagesTable
                    0x1816                  mirrorStatus
                    0x1819                  LoadControlEventCommandPayloadDefaultValue
                    0x185e                  LCEReqFrameVal
                    0x1866                  MeteringIntervalsTable
                    0x1884                  NoOfEntriesInAttrStorageTable_ESP
                    0x1886                  meterAttributes_DisplayStateTable

.bss                0x18ea        0xeb2
 .bss               0x18ea        0x40e Objects\PIC24_256\App_ESP.o
                    0x18ea                  fragmentData
                    0x1cea                  StartTime_GetNode
                    0x1cee                  currentPrimitive_ESP
                    0x1cf0                  nwkDesExtendedPANID
 .bss               0x1cf8        0x298 Objects\PIC24_256\zNWK.o
                    0x1cfe                  ParentAddress
                    0x1d00                  RouteRecordTable
                    0x1df0                  RoLoAddr
                    0x1df8                  ASSOCIATE_indication_Time
                    0x1dfc                  rejoinIndication
                    0x1e14                  rejoinIndicationPending
                    0x1e15                  msduHandle
                    0x1e16                  nwkConfirmationHandles
                    0x1eb6                  NIB
                    0x1eb7                  nwkSecurityLevel
                    0x1eb8                  EdRecords
                    0x1eca                  TotalTransmittedPackets
                    0x1ecc                  TotalTransmitFailures
                    0x1ece                  InterferenceDetected
                    0x1ed0                  messageToForward
                    0x1ed2                  nwkStatus
                    0x1f5c                  panIDConflictStatus
                    0x1f5d                  routeDstInfo
                    0x1f6c                  routeDiscoveryTablePointer
                    0x1f74                  rejoin_network
                    0x1f76                  DataToBeSendAfterRouteRecord
                    0x1f7e                  addressConflictOnChildEndDevice
                    0x1f80                  rejoinWithSec
                    0x1f82                  timeBetweenScanDuringRejoin
                    0x1f86                  frame_counter
                    0x1f8e                  rejoinShortAddress
 .bss               0x1f90        0x23c Objects\PIC24_256\ZigbeeTasks.o
                    0x1f90                  CurrentRxPacket
                    0x1f92                  params
                    0x1fbe                  TxBuffer
                    0x20be                  TxData
                    0x20bf                  TxHeader
                    0x20c0                  ZigBeeStatus
                    0x20c4                  RxBuffer
                    0x21c4                  appNotify
                    0x21c9                  RxWrite
                    0x21ca                  RxRead
 .bss               0x21cc        0x232 Objects\PIC24_256\zAPS.o
                    0x21cc                  AuthorizationTimeout
                    0x21d0                  WaitForAuthentication
                    0x21d4                  TCLinkKeyInfo
                    0x21f2                  APSCounter
                    0x21f4                  currentAppLinkKeyTable
                    0x2212                  apsChannelMask
                    0x2216                  apsStatus
                    0x2254                  apsConfirmationHandles
                    0x2280                  apsFragmentationInfo
                    0x22bc                  apsDuplicateTable
                    0x23bc                  KeyVal
                    0x23cc                  lastPollTime
                    0x23d0                  transportKeySrcAddr
                    0x23d8                  fragmentWindowSize
                    0x23d9                  fragmentInterframeDelay
                    0x23da                  fragmentDataSize
                    0x23dc                  fragmentTotalDataLength
                    0x23de                  currentGroupAddressRecord
                    0x23e8                  previousKeyNotSeq0
                    0x23ea                  updateDevAPSAddr
                    0x23f4                  currentAPSAddress1
 .bss               0x23fe        0x1e0 Objects\PIC24_256\zSecurity_MRF24J40.o
                    0x2400                  OutgoingFrameCount
                    0x2408                  IncomingFrameCount
                    0x2598                  securityStatus
                    0x259a                  plainSecurityKey
                    0x25be                  key
                    0x25ce                  buffer
 .bss               0x25de        0x1be Objects\PIC24_256\zNVM.o
                    0x25de                  macLongAddrEE
                    0x25e0                  macLongAddrValidityKey
                    0x25e2                  currentBindingRecord
                    0x25ea                  apsBindingTable
                    0x25ec                  bindingTableUsageMap
                    0x25ee                  bindingTableSourceNodeMap
                    0x25f0                  bindingValidityKey
                    0x25f2                  pCurrentBindingRecord
                    0x25f4                  apsGroupAddressTable
                    0x25f6                  pCurrentGroupAddressRecord
                    0x25f8                  currentNeighborRecord
                    0x2616                  currentNeighborTableInfo
                    0x262a                  RAMNeighborTable
                    0x26f2                  neighborTable
                    0x26f4                  neighborTableInfo
                    0x26f6                  pCurrentNeighborRecord
                    0x26f8                  currentRoutingEntry
                    0x26fe                  routingTable
                    0x2700                  pCurrentRoutingEntry
                    0x2702                  currentAPSAddress
                    0x270c                  apsAddressMapValidityKey
                    0x270e                  apsAddressMap
                    0x2710                  currentNetworkKeyInfo
                    0x2722                  nwkActiveKeyNumber
                    0x2724                  networkKeyInfo
                    0x2726                  outgoingFrameCounterIndex
                    0x2728                  appLinkKeyTable
                    0x272a                  TCLinkKeyTable
                    0x272c                  nodeDescriptorValidityKey
                    0x272e                  configNodeDescriptor
                    0x2730                  configPowerDescriptor
                    0x2732                  configSimpleDescriptors
                    0x2734                  persistencePIB
                    0x2736                  current_SAS
                    0x2796                  default_SAS
                    0x2798                  Commissioned_SAS
                    0x279a                  activeSASIndex

.data               0x279c        0x154
 .data              0x279c        0x154 Objects\PIC24_256\SE_Profile.o
                    0x279c                  meterStatus
                    0x27a2                  commissioningRestartInProgress
                    0x27a3                  CommRestartTimerInProgress
                    0x27a4                  clusterSecurityTable
                    0x27d8                  alarmConditionTableEntries
                    0x27f9                  AlarmEntries
                    0x2811                  MainsVoltageDwellTripPointHandled
                    0x2812                  appIdentifyTimers
                    0x2818                  appPowerConfigMainsDwellTrip
                    0x281e                  reportConfigurationTable
                    0x28e2                  scenesRecallCmdRecord
                    0x28ec                  sceneValidInfo

.bss                0x28f0        0x28e
 .bss               0x28f0         0xe4 Objects\PIC24_256\zZDO.o
                    0x28fa                  leavingChildDetails
                    0x2904                  sendrequestSource
                    0x2906                  SendIee
                    0x290e                  pBindInProgressInfo
                    0x2910                  sequenceNumber
                    0x2912                  zdoStatus
                    0x292a                  ZDOCounter
                    0x292b                  dAddr
                    0x292e                  simpleDescriptor
                    0x2974                  NwkJoinTries
                    0x2976                  NetworkDescriptor
                    0x2978                  currentNetworkDescriptor
                    0x297a                  NwkDiscoveryTries
                    0x297c                  NetworkDesc
                    0x29c2                  syncLoss
                    0x29c4                  mgmtNwkUpateRequestDetails
                    0x29cc                  joinReqType
                    0x29cd                  startMode
                    0x29ce                  appNotification
                    0x29d0                  matchCluster1
                    0x29d2                  matchCluster2
 .bss               0x29d4         0xd6 Objects\PIC24_256\comm.o
 .bss               0x2aaa         0xd4 Objects\PIC24_256\Menu_MTR.o
                    0x2aaa                  inputBuf_MTR
                    0x2b74                  MeteringGetProfileResponse

.data               0x2b7e         0xd2
 .data              0x2b7e         0xd2 Objects\PIC24_256\SE_MTR.o
                    0x2b7e                  pMeterClusterServerDefinition
                    0x2b8e                  pMeterClusterClientDefinition
                    0x2ba2                  Meter_DeviceServerinfo
                    0x2ba6                  pAppListOfDeviceServerInfo_MTR
                    0x2ba8                  Meter_DeviceClientinfo
                    0x2bac                  pAppListOfDeviceClientInfo_MTR
                    0x2bae                  App_AttributeStorageTable_MTR
                    0x2bfe                  NoOfEntriesInAttrStorageTable
                    0x2c00                  testMeterProfiles

.bss                0x2c50         0xc6
 .bss               0x2c50         0xc6 Objects\PIC24_256\zMAC_MRF24J40.o
                    0x2c50                  macPIB
                    0x2c76                  associationReqParams
                    0x2c7a                  currentPacket
                    0x2c8c                  macIndirectBuffers
                    0x2cf0                  macStatus
                    0x2cf1                  macTasksPending
                    0x2cf2                  scanParams
                    0x2d0e                  tempLongAddress

.data               0x2d16        0x144
 .data              0x2d16         0xa4 Objects\PIC24_256\msdlclusterhanddle.o
                    0x2d16                  AckReceived
                    0x2d17                  NetworkStatusCommandResponse
                    0x2d1e                  StartNetworkFlag
                    0x2d1f                  waitingForDeta
                    0x2d20                  Uart2Buffer
                    0x2dac                  HowManyData
                    0x2dae                  NumberofSeperator
                    0x2db0                  NumberofReceived
                    0x2db2                  numberofdatareceived
                    0x2db3                  ScanCommandSend
                    0x2db4                  TimeExitDelayForReset
                    0x2db6                  ScanResponceReceived
                    0x2db7                  AllScanCommandComplet
                    0x2db8                  TotalScanCommandSend
 .data              0x2dba         0xa0 c:/program files/microchip/mplabc30/v3.31/bin/bin/../../lib\libc-coff.a(doprnt_cdnopuxX.XXo)

.bss                0x2e5a        0x12a
 .bss               0x2e5a         0x72 Objects\PIC24_256\Menu_ESP.o
                    0x2e5c                  inputBuf_ESP
                    0x2e76                  menuLevel1
                    0x2e77                  menuLevel2
                    0x2e78                  menuLevel3
                    0x2e79                  asduData
                    0x2ec9                  extensionFieldIndex
                    0x2eca                  NumberOfExtensionFields
                    0x2ecb                  attribute_count
 .bss               0x2ecc         0x54 Objects\PIC24_256\SE_ESP.o
                    0x2ece                  numberOfPriceEvents
                    0x2ecf                  numberofTiersSupported
                    0x2ed0                  espStatus
                    0x2ede                  PublishPriceInfo
                    0x2f12                  meterFormatAttributes
 .bss               0x2f20         0x38 Objects\PIC24_256\merge_main.o
                    0x2f20                  MAX_ENERGY_THRESHOLD
                    0x2f22                  appNextSeqNum_PTR
                    0x2f24                  ALLOWED_CHANNELS
                    0x2f28                  App_AttributeStorageTable
                    0x2f2a                  MSDCL_Commission
                    0x2f4a                  pAppListOfDeviceServerInfo
                    0x2f4e                  pAppListOfDeviceClientInfo
                    0x2f52                  Config_Simple_Descriptors
                    0x2f54                  ChannelsToBeScanned
 .bss               0x2f58         0x2c Objects\PIC24_256\zAIL.o
                    0x2f58                  AILTransmitQueue
                    0x2f6c                  AILReceiveQueue
                    0x2f80                  AILTransmitQueueHeadIndex
                    0x2f81                  AILTransmitQueueTailIndex
                    0x2f82                  AILReceiveQueueHeadIndex
                    0x2f83                  AILReceiveQueueTailIndex

.dconst             0x2f84         0x2a
 .dconst            0x2f84         0x2a c:/program files/microchip/mplabc30/v3.31/bin/bin/../../lib\libc-coff.a(doprnt_cdnopuxX.XXo)

.data               0x2fae         0x26
 .data              0x2fae         0x26 c:/program files/microchip/mplabc30/v3.31/bin/bin/../../lib\libc-coff.a(_iob.XXo)
                    0x2fae                  _Files
                    0x2fb0                  _iob

.bss                0x2fd4         0x48
 .bss               0x2fd4         0x1e Objects\PIC24_256\App_MTR.o
                    0x2fd6                  interPANDataRequest
                    0x2fea                  currentPrimitive_MTR
                    0x2fec                  meterReadingValue
 .bss               0x2ff2         0x18 Objects\PIC24_256\SE_Display.o
                    0x2ff6                  displayGroups
 .bss               0x300a         0x12 Objects\PIC24_256\zPHY_MRF24J40.o
                    0x300a                  savedBits
                    0x300c                  phyPIB
                    0x3012                  IntStatus
                    0x3014                  pendingAckFrameControl
                    0x3016                  phyError
                    0x3017                  PHYTasksPending
                    0x3018                  RxData
                    0x3019                  TRXCurrentState
                    0x301a                  TxStat

.data               0x301c         0x12
 .data              0x301c         0x12 Objects\PIC24_256\myZigBee_ESP.o
                    0x301c                  Config_Node_Descriptor
                    0x302c                  Config_Power_Descriptor

.bss                0x302e         0x10
 .bss               0x302e         0x10 c:/program files/microchip/mplabc30/v3.31/bin/bin/../../lib\libc-coff.a(malloc.XXo)
                    0x302e                  _allocx
                    0x3032                  _alloct
                    0x3034                  _allocp
                    0x3036                  _allocs

.data               0x303e          0xc
 .data              0x303e          0xc Objects\PIC24_256\zNVM.o
                    0x303e                  macLongAddrByte
                    0x3046                  pRAMNeighborTable

.bss                0x304a          0xa
 .bss               0x304a          0xa Objects\PIC24_256\rtcc.o
                    0x304a                  _time_chk
                    0x3052                  _rtcc_flag

.data               0x3054         0x2e
 .data              0x3054          0xa Objects\PIC24_256\zNWK.o
                    0x3054                  RoLongFlage
                    0x3055                  UpdateNotifyCount
                    0x3056                  activatePANIDConflict
                    0x3057                  activateAddConfDetection
                    0x3058                  waitForKey
                    0x3059                  rejoin_retries
                    0x305a                  doingRejoinCommand
                    0x305b                  updatepayload
                    0x305c                  panIdListCounter
 .data              0x305e          0xa Objects\PIC24_256\zZDO.o
                    0x305e                  AskDeviceAddress
                    0x305f                  NewChannel
                    0x3060                  CurrentChannelEnergy
                    0x3062                  lcount
                    0x3064                  AllowJoin
                    0x3065                  State
                    0x3066                  NetworkDescIndex
 .data              0x3068          0xa Objects\PIC24_256\merge_main.o
                    0x3068                  NowIam
                    0x306a                  I_AM_TRUST_CENTER
                    0x306b                  USE_COMMON_TC_LINK_KEY
                    0x306c                  DEFAULT_STARTUP_CONTROL
                    0x306e                  MSDCL_Commission_Locations
                    0x3070                  MAXDISCOVERYYRETRIES
 .data              0x3072          0x8 Objects\PIC24_256\SE_Display.o
                    0x3072                  displayState
                    0x3074                  displayTimer
 .data              0x307a          0x8 E:\Dropbox\MyWork\SEPV1.1\Source\CMRI\SEP Progressive merge MTR Merge\Source\Common\Lib\ZCL24bitLib.a(ZCL_Foundation.o)

.bss                0x3082          0x6
 .bss               0x3082          0x6 c:/program files/microchip/mplabc30/v3.31/bin/bin/../../lib\libc-coff.a(_iob.XXo)
                    0x3082                  _sobuf
                    0x3084                  _sibuf
                    0x3086                  _outdone

.data               0x3088          0x4
 .data              0x3088          0x4 Objects\PIC24_256\zAPS.o
                    0x3088                  QuickPoll
                    0x3089                  SentBindRequest
                    0x308a                  firstKeyHasBeenSent

.bss                0x308c          0x8
 .bss               0x308c          0x4 Objects\PIC24_256\zStub_APS.o
                    0x308c                  storeMsduHandle
                    0x308d                  interPanDataTransmitted
                    0x308e                  storeAsduHandle
 .bss               0x3090          0x2 Objects\PIC24_256\sralloc.o
                    0x3090                  CountCurrentMemoryAllocated
 .bss               0x3092          0x2 Objects\PIC24_256\SymbolTime.o
                    0x3092                  timerExtension1
                    0x3093                  timerExtension2

.data               0x3094          0x6
 .data              0x3094          0x2 Objects\PIC24_256\zMAC_MRF24J40.o
                    0x3094                  MyCurrentChannel
                    0x3095                  InterruptRoutineSet
 .data              0x3096          0x2 Objects\PIC24_256\App_Common.o
                    0x3096                  destinationEndPoint
 .data              0x3098          0x2 Objects\PIC24_256\App_MTR.o
                    0x3098                  appNextSeqNum_MTR

.bss                0x309a          0x2
 .bss               0x309a          0x2 Objects\PIC24_256\SE_MTR.o

.data               0x309c          0x4
 .data              0x309c          0x2 Objects\PIC24_256\App_ESP.o
                    0x309c                  appNextSeqNum_ESP
 .data              0x309e          0x2 Objects\PIC24_256\Menu_ESP.o
                    0x309e                  inputIndex
                    0x309f                  totalExtensionFieldLength

.bss                0x30a0          0x2
 .bss               0x30a0          0x2 c:/program files/microchip/mplabc30/v3.31/bin/bin/../../lib\libpic30-coff.a(brk.o)
                    0x30a0                  __curbrk

.data               0x30a2          0x2
 .data              0x30a2          0x2 c:/program files/microchip/mplabc30/v3.31/bin/bin/../../lib\libpic30-coff.a(c30_uart.o)
                    0x30a2                  __C30_UART

.heap               0x30a4        0xf4c
 .heap              0x30a4        0xf4c heap

.const              0x9182       0x598c load address 0x001182  
 .const             0x9182       0x309a Objects\PIC24_256\Menu_ESP.o
                    0x940a                  menu_ESP
                    0x955e                  settingsMenu_ESP
                    0x962c                  genericCommandsMenu_ESP
                    0x9686                  basicClusterMenu_ESP
                    0x96f2                  identifyClusterMenu_ESP
                    0x97ba                  commissioningClusterMenu
                    0x982c                  messageClusterMenu
                    0x9884                  meteringClusterMenu_ESP
                    0x98d2                  priceClusterMenu_ESP
                    0x9980                  drlcClusterMenu
                    0x9a1a                  interPANMenu_ESP
                    0x9a58                  displayMenu_ESP
                    0x9b02                  alarmClusterMenu_ESP
                    0x9bfa                  groupsClusterMenu_ESP
                    0x9d2c                  scenesClusterMenu_ESP
                    0x9dae                  fragmentationMenu_ESP
 .const             0xc21c       0x14d0 Objects\PIC24_256\Menu_MTR.o
                    0xc3f4                  menu_MTR
                    0xc4ec                  settingsMenu_MTR
                    0xc5ba                  genericCommandsMenu_MTR
                    0xc614                  basicClusterMenu_MTR
                    0xc680                  identifyClusterMenu_MTR
                    0xc6f2                  meteringClusterMenu_MTR
                    0xc76a                  priceClusterMenu_MTR
                    0xc7f6                  interPANMenu_MTR
                    0xc834                  displayMenu_MTR
                    0xc8de                  alarmClusterMenu_MTR
                    0xc9d6                  groupsClusterMenu_MTR
                    0xcb08                  scenesClusterMenu_MTR
                    0xcb8a                  fragmentationMenu_MTR
 .const             0xd6ec        0x24c Objects\PIC24_256\App_MTR.o
 .const             0xd938        0x1f6 Objects\PIC24_256\msdlclusterhanddle.o
                    0xd938                  GetDataFromMeter
                    0xd93e                  AddMeterCommand
                    0xd944                  AddMeterCommandResponce
                    0xd949                  NumberOfAddedMetersCommand
                    0xd94f                  NumberofAddedMeterResponce
                    0xd954                  MyChannelNumberCommand
                    0xd95a                  MyChannelNumberResponce
                    0xd95f                  MyRouteRequest
                    0xd965                  NetworkStatusCommand
                    0xd96b                  NetworkStartCommand
                    0xd971                  NetworkStopCommand
                    0xd977                  SetNetworkExtendedPANIdCommand
                    0xd97d                  SetNetworkLinkKeyCommand
                    0xd983                  SetNetworkDeviceTypeCommand
                    0xd989                  SetNetworkResetCommand
                    0xd98f                  SetNetworkDefaultESPCommand
                    0xd995                  SetNetworkChannelMaskCommand
                    0xd99b                  DeviceStartIndication
                    0xd9a6                  NetworkStartCommandResponse
                    0xd9ac                  NetworkStopCommandResponse
                    0xd9b3                  SetNetworkExtendedPANIdCommandResponse
                    0xd9b9                  SetNetworkLinkKeyCommandResponse
                    0xd9bf                  SetNetworkDeviceTypeCommandResponse
                    0xd9c5                  SetNetworkResetCommandResponse
                    0xd9cc                  SetNetworkDefaultESPCommandResponse
                    0xd9d2                  SetNetworkChannelMaskResponce
 .const             0xdb2e        0x1cc Objects\PIC24_256\App_ESP.o
 .const             0xdcfa        0x18c Objects\PIC24_256\SE_ESP.o
                    0xdcfa                  ESP_IdentifyAttributeDefaultValue
                    0xdcfc                  ESP_GroupsAttributeDefaultValue
                    0xdcfe                  ESP_TimeAttributeDefaultValue
                    0xdd1c                  ESP_BasicAttributeDefaultValue
                    0xdd64                  ESP_PriceAttributeDefaultValue
                    0xddac                  ESP_ScenesAttributeDefaultValue
                    0xddba                  ESP_PowerConfigurationAttributeDefaultValue
                    0xdddc                  ESP_AlarmAttributeDefaultValue
                    0xddde                  ESP_MeteringAttributeDefaultValue
 .const             0xde86        0x184 Objects\PIC24_256\SE_MTR.o
                    0xde86                  Meter_IdentifyAttributeDefaultValue
                    0xde88                  Meter_GroupsAttributeDefaultValue
                    0xde8a                  Meter_ScenesAttributeDefaultValue
                    0xde98                  Meter_BasicAttributeDefaultValue
                    0xdee0                  Meter_MeteringAttributeDefaultValue
                    0xdf88                  Meter_CommissioningAttributeDefaultValues
                    0xdfe6                  Meter_PowerConfigurationAttributeDefaultValue
                    0xe008                  Meter_AlarmAttributeDefaultValue
 .const             0xe00a        0x176 Objects\PIC24_256\zNWK.o
 .const             0xe180        0x12c Objects\PIC24_256\SE_Profile.o
 .const             0xe2ac        0x124 Objects\PIC24_256\zSecurity_MRF24J40.o
                    0xe2ac                  SwitchTable
                    0xe2b4                  MICTable
                    0xe2bc                  defaultMasterKey
                    0xe2cc                  flagTable
                    0xe2cf                  STable
 .const             0xe3d0         0xc4 E:\Dropbox\MyWork\SEPV1.1\Source\CMRI\SEP Progressive merge MTR Merge\Source\Common\Lib\ZCL24bitLib.a(ZCL_Metering.o)
                    0xe3d0                  zcl_MeteringAttributeServerInfo
                    0xe480                  zcl_MeteringClusterServerInfo
                    0xe486                  zcl_MeteringClusterServerDefinition
                    0xe48a                  zcl_MeteringClusterClientInfo
                    0xe490                  zcl_MeteringClusterClientDefinition
 .const             0xe494         0xbe Objects\PIC24_256\merge_main.o
 .const             0xe552         0xa4 Objects\PIC24_256\zZDO.o
 .const             0xe5f6         0x9a Objects\PIC24_256\zMAC_MRF24J40.o
                    0xe5f6                  timeToAdd
 .const             0xe690         0x96 Objects\PIC24_256\myZigBee_ESP.o
                    0xe690                  Config_Simple_Descriptors_ESP
                    0xe71c                  Config_NWK_Mode_and_Params_ESP
 .const             0xe726         0x96 Objects\PIC24_256\myZigBee_MTR.o
                    0xe726                  Config_Simple_Descriptors_MTR
                    0xe7b2                  Config_NWK_Mode_and_Params_MTR
 .const             0xe7bc         0x74 E:\Dropbox\MyWork\SEPV1.1\Source\CMRI\SEP Progressive merge MTR Merge\Source\Common\Lib\ZCL24bitLib.a(ZCL_Commissioning.o)
                    0xe7bc                  zcl_CommissioningAttributeServerInfo
                    0xe81c                  zcl_CommissioningClusterServerInfo
                    0xe822                  zcl_CommissioningClusterServerDefinition
                    0xe826                  zcl_CommissioningClusterClientInfo
                    0xe82c                  zcl_CommissioningClusterClientDefinition
 .const             0xe830         0x6a E:\Dropbox\MyWork\SEPV1.1\Source\CMRI\SEP Progressive merge MTR Merge\Source\Common\Lib\ZCL24bitLib.a(ZCL_Foundation.o)
                    0xe830                  aGenericCommandFuncPointerLookUpTable
                    0xe84c                  AttributeLengthLookUpTable
 .const             0xe89a         0x4c E:\Dropbox\MyWork\SEPV1.1\Source\CMRI\SEP Progressive merge MTR Merge\Source\Common\Lib\ZCL24bitLib.a(ZCL_Power_Configuration.o)
                    0xe89a                  zcl_PowerConfigurationAttributeServerInfo
                    0xe8d2                  zcl_PowerConfigurationClusterServerInfo
                    0xe8d8                  zcl_PowerConfigurationClusterServerDefinition
                    0xe8dc                  zcl_PowerConfigurationClusterClientInfo
                    0xe8e2                  zcl_PowerConfigurationClusterClientDefinition
 .const             0xe8e6         0x44 E:\Dropbox\MyWork\SEPV1.1\Source\CMRI\SEP Progressive merge MTR Merge\Source\Common\Lib\ZCL24bitLib.a(ZCL_Basic.o)
                    0xe8e6                  zcl_BasicAttributeServerInfo
                    0xe916                  zcl_BasicClusterServerInfo
                    0xe91c                  zcl_BasicClusterServerDefinition
                    0xe920                  zcl_BasicClusterClientInfo
                    0xe926                  zcl_BasicClusterClientDefinition
 .const             0xe92a         0x42 Objects\PIC24_256\SE_Display.o
 .const             0xe96c         0x34 E:\Dropbox\MyWork\SEPV1.1\Source\CMRI\SEP Progressive merge MTR Merge\Source\Common\Lib\ZCL24bitLib.a(ZCL_Time.o)
                    0xe96c                  ZCL_TimeAttributeServerInfo
                    0xe98c                  zcl_TimeClusterServerInfo
                    0xe992                  zcl_TimeClusterServerDefinition
                    0xe996                  zcl_TimeClusterClientInfo
                    0xe99c                  zcl_TimeClusterClientDefinition
 .const             0xe9a0         0x2c E:\Dropbox\MyWork\SEPV1.1\Source\CMRI\SEP Progressive merge MTR Merge\Source\Common\Lib\ZCL24bitLib.a(ZCL_Scenes.o)
                    0xe9a0                  zcl_ScenesAttributeServerInfo
                    0xe9b8                  zcl_ScenesClusterServerInfo
                    0xe9be                  zcl_ScenesClusterServerDefinition
                    0xe9c2                  zcl_ScenesClusterClientInfo
                    0xe9c8                  zcl_ScenesClusterClientDefinition
 .const             0xe9cc         0x2c E:\Dropbox\MyWork\SEPV1.1\Source\CMRI\SEP Progressive merge MTR Merge\Source\Common\Lib\ZCL24bitLib.a(ZCL_Price.o)
                    0xe9cc                  ZCL_PriceAttributeServerInfo
                    0xe9e4                  zcl_PriceClusterServerInfo
                    0xe9ea                  zcl_PriceClusterServerDefinition
                    0xe9ee                  zcl_PriceClusterClientInfo
                    0xe9f4                  zcl_PriceClusterClientDefinition
 .const             0xe9f8         0x24 E:\Dropbox\MyWork\SEPV1.1\Source\CMRI\SEP Progressive merge MTR Merge\Source\Common\Lib\ZCL24bitLib.a(ZCL_DRLC.o)
                    0xe9f8                  zcl_DRLCClusterServerInfo
                    0xe9fe                  zcl_DRLCClusterServerDefinition
                    0xea02                  zcl_DRLCAttributeClientInfo
                    0xea12                  zcl_DRLCClusterClientInfo
                    0xea18                  zcl_DRLCClusterClientDefinition
 .const             0xea1c         0x1e Objects\PIC24_256\Console.o
                    0xea1c                  CharacterArray
 .const             0xea3a         0x18 Objects\PIC24_256\rtcc.o
 .const             0xea52         0x18 Objects\PIC24_256\HAL.o
 .const             0xea6a         0x18 Objects\PIC24_256\zAPS.o
 .const             0xea82         0x18 E:\Dropbox\MyWork\SEPV1.1\Source\CMRI\SEP Progressive merge MTR Merge\Source\Common\Lib\ZCL24bitLib.a(ZCL_Groups.o)
                    0xea82                  zcl_GroupsAttributeServerInfo
                    0xea86                  zcl_GroupsClusterServerInfo
                    0xea8c                  zcl_GroupsClusterServerDefinition
                    0xea90                  zcl_GroupsClusterClientInfo
                    0xea96                  zcl_GroupsClusterClientDefinition
 .const             0xea9a         0x18 E:\Dropbox\MyWork\SEPV1.1\Source\CMRI\SEP Progressive merge MTR Merge\Source\Common\Lib\ZCL24bitLib.a(ZCL_Identify.o)
                    0xea9a                  zcl_IdentifyAttributeServerInfo
                    0xea9e                  zcl_IdentifyClusterServerInfo
                    0xeaa4                  zcl_IdentifyClusterServerDefinition
                    0xeaa8                  zcl_IdentifyClusterClientInfo
                    0xeaae                  zcl_IdentifyClusterClientDefinition
 .const             0xeab2         0x18 E:\Dropbox\MyWork\SEPV1.1\Source\CMRI\SEP Progressive merge MTR Merge\Source\Common\Lib\ZCL24bitLib.a(ZCL_Alarm.o)
                    0xeab2                  zcl_AlarmAttributeServerInfo
                    0xeab6                  zcl_AlarmClusterServerInfo
                    0xeabc                  zcl_AlarmClusterServerDefinition
                    0xeac0                  zcl_AlarmClusterClientInfo
                    0xeac6                  zcl_AlarmClusterClientDefinition
 .const             0xeaca         0x14 E:\Dropbox\MyWork\SEPV1.1\Source\CMRI\SEP Progressive merge MTR Merge\Source\Common\Lib\ZCL24bitLib.a(ZCL_Message.o)
                    0xeaca                  zcl_MessageClusterServerInfo
                    0xead0                  zcl_MessageClusterServerDefinition
                    0xead4                  zcl_MessageClusterClientInfo
                    0xeada                  zcl_MessageClusterClientDefinition
 .const             0xeade         0x12 Objects\PIC24_256\ZigbeeTasks.o
                    0xeade                  releaseVersionNumber
 .const             0xeaf0          0xe Objects\PIC24_256\monitor.o
 .const             0xeafe          0xc E:\Dropbox\MyWork\SEPV1.1\Source\CMRI\SEP Progressive merge MTR Merge\Source\Common\Lib\ZCL24bitLib.a(ZCL_Utility.o)
                    0xeafe                  monthDaysTable
 .const             0xeb0a          0x4 E:\Dropbox\MyWork\SEPV1.1\Source\CMRI\SEP Progressive merge MTR Merge\Source\Common\Lib\TLS2130.a(lcd.o)

.text             0x006b0e      0x1c406
 .text            0x006b0e       0x6e80 Objects\PIC24_256\zNWK.o
                  0x006b0e                  NWKHasBackgroundTasks
                  0x006b1c                  NWKInit
                  0x006bf2                  NWKTasks
                  0x00b7ca                  AddChildNode
                  0x00b888                  CanAddChildNode
                  0x00b8b6                  CanAddNeighborNode
                  0x00b8ec                  CreateNewBTR
                  0x00b97e                  CreateRouteReply
                  0x00ba8a                  FindFreeRoutingTableEntry
                  0x00bb18                  CreateRoutingTableEntries
                  0x00bc1e                  FindNextHopAddress
                  0x00bcac                  GetNextHop
                  0x00bd0a                  GetDestFromRoutingTable
                  0x00bda2                  GetMulticastRoutingEntry
                  0x00be14                  GetRoutingAddress
                  0x00be90                  HaveRoutingCapacity
                  0x00bf28                  InitiateRouteDiscovery
                  0x00c2f0                  MarkNeighborAsPasssiveACKed
                  0x00c336                  NLME_GET_nwkBCSN
                  0x00c348                  NWKClearNeighborTable
                  0x00c3c2                  NWKClearRoutingTable
                  0x00c3f8                  NWKGet
                  0x00c4f6                  IsThisAddressKnown
                  0x00c58e                  IsThisLongAddressKnown
                  0x00c6d4                  NWKLookupNodeByLongAddr
                  0x00c720                  NWKLookupNodeByExtendedPANId
                  0x00c766                  NWKLookupNodeByShortAddrVal
                  0x00c7a4                  NWKLookupNodeByRxOffDeviceShortAddrVal
                  0x00c7ea                  NWKFindRandomNeighbor
                  0x00c842                  NWKLookupNodeByShortAddrValAndPANID
                  0x00c88c                  NWKThisIsMyLongAddress
                  0x00c8b6                  NWKTidyNeighborTable
                  0x00c930                  Prepare_MCPS_DATA_request
                  0x00c98a                  RemoveNeighborTableEntry
                  0x00c9d4                  RemoveRoutingTableEntry
                  0x00ca1a                  AgeOutRoutingTableEntries
                  0x00ca72                  ClearRoutingTableEntry
                  0x00cac2                  RequestedPANIDFound
                  0x00cb06                  SetBeaconPayload
                  0x00cb58                  VariableAndTableInitialization
                  0x00cc72                  clearNWKKEy
                  0x00ccea                  GenerateNewShortAddr
                  0x00cd0a                  IsThereAddressConflict
                  0x00cdb6                  PrepareUnsolicitedRejoinRsp
                  0x00ce28                  PrepareNwkStatusCmdBroadcast
                  0x00cf38                  CreateSourceRouteSubframe
                  0x00cfbc                  GetIndexInRouteRecord
                  0x00d160                  StoreRouteRecord
                  0x00d1ca                  GetIndexToAddInRouteRecordTable
                  0x00d246                  CreateRelyingRouteRecord
                  0x00d34a                  CreateNwkHeaderForDataAndStoreData
                  0x00d3b8                  LoadBackUpDataToTxBuffer
                  0x00d44a                  PrepareNetworkReportCmdFrame
                  0x00d4ca                  PrepareNetworkUpdateCmdFrame
                  0x00d588                  CalculateLinkQuality
                  0x00d7f4                  VerifyNetworkManager
                  0x00d810                  StorePersistancePIB
                  0x00d892                  RestorePersistencePIB
                  0x00d906                  ClearNeighborTable
                  0x00d95c                  SetMulticastParams
 .text            0x00d98e       0x3b5c Objects\PIC24_256\zZDO.o
                  0x00d98e                  InitNVMWithDefaultValues
                  0x00da84                  ZDOHasBackgroundTasks
                  0x00da90                  ZDOInit
                  0x00dade                  ZDOTasks
                  0x00fa40                  DeleteRouteRecord
                  0x00faa6                  GetHashKey
                  0x00fac8                  FinishAddressResponses
                  0x00fbcc                  IsThisMyShortAddr
                  0x00fbfe                  GetOneEndDeviceBindRequest
                  0x00fcde                  ProcessEndDeviceBind
                  0x00fdc2                  FindMatch
                  0x00fe54                  SendBindOrUnbind
                  0x00ff24                  ClearMemoryAllocatedForEB
                  0x00ffd8                  Send_END_DEVICE_BIND_rsp
                  0x010004                  PrepareMessageResponse
                  0x010070                  handleActiveEPReq
                  0x0100c0                  handleLQIReq
                  0x010236                  handleRTGReq
                  0x01037e                  handleMatchDescReq
                  0x010558                  ProcessBindAndUnbind
                  0x01079e                  SendBindAddressRequest
                  0x010822                  SendUpBindResult
                  0x010882                  Initdefault_SAS
                  0x010b10                  GetActiveSAS
                  0x010b7e                  GetCurrentSAS
                  0x010b82                  RestartDevice
                  0x010be6                  SaveSAS
                  0x010c00                  RestoreSAS
                  0x010c2e                  ResetSAStablevalidity
                  0x010c6e                  ResetAllSAStablevalidity
                  0x010c80                  SetActiveIndex
                  0x010d38                  ResetSAS
                  0x010db2                  SaveCurrentSAS
                  0x010de4                  updateCurrentSAS
                  0x010dee                  updateCommissioningParameters
                  0x010e14                  SetNextChildAddr
                  0x010e36                  ResolveLocalAddressConflict
                  0x010e6a                  SetOwnShortAddr
                  0x010f98                  JoinRequest
                  0x010ff2                  InitiateStartup
                  0x0111aa                  SetTCLinkKeyInfo
                  0x011204                  GetTCLinkKeyInfo
                  0x01124c                  UpdateTCLinkKey
                  0x011294                  ZDOSwitchChannel
                  0x0112c8                  ZDOChangeNetworkManager
                  0x0113fa                  SetPANId
                  0x011408                  MyAskForDeviceAddress
                  0x01144a                  MySendAddressRequest
 .text            0x0114ea       0x3a68 Objects\PIC24_256\zAPS.o
                  0x0114ea                  APSHasBackgroundTasks
                  0x0114f6                  APSInit
                  0x0115ae                  APSTasks
                  0x013a0e                  APSFillSecurityRequest
                  0x013b1a                  APSAddBindingInfo
                  0x013d20                  APSClearAPSAddressTable
                  0x013d60                  APSGet
                  0x013d7a                  APSRemoveBindingInfo
                  0x013e68                  LookupAPSAddress
                  0x013eb0                  APSSaveAPSAddress
                  0x013f0e                  LookupAPSLongAddress
                  0x013f4e                  LookupSourceBindingInfo
                  0x013fce                  RemoveAllBindings
                  0x014194                  APSFromShortToLong
                  0x0141d6                  APSFromLongToShort
                  0x014202                  DuplicatePacket
                  0x014296                  GetEndPointsFromGroup
                  0x0142d6                  GetEmptyGroup
                  0x01430e                  AddGroup
                  0x014398                  RemoveGroup
                  0x014450                  RemoveAllGroups
                  0x014490                  APLDiscardRx
                  0x0144a2                  UpdateFragmentParams
                  0x0144b2                  HandleFragmentDataRequest
                  0x014b68                  SearchForLinkKey
                  0x014bf8                  FormatTxBuffer
                  0x014c62                  initAPPLinkKeyTable
                  0x014ccc                  TunnelTransportKey
                  0x014d58                  SearchForTCLinkKey
                  0x014dce                  ApplyAPSSecurityToAPSACK
                  0x014ee0                  GetGroupByIndex
                  0x014f0c                  VerifyGroupAddrAndEndPoint
 .text            0x014f52       0x2f04 Objects\PIC24_256\Menu_ESP.o
                  0x014f52                  ProcessMenu_ESP
                  0x01524e                  HandleESPDefault
                  0x015318                  HandleESPtoMtr
                  0x017844                  PrintMenu_ESP
                  0x017894                  HandleMettringClusterMenuOptions
                  0x017c40                  HandleNetworkInformation
                  0x017d8c                  HandleDiscoverRoute
 .text            0x017e56       0x2c08 Objects\PIC24_256\SE_Profile.o
                  0x018174                  SE_SendDefaultResponse
                  0x018212                  SE_GetClusterSpecificSecurity
                  0x018232                  ZCL_Callback_IsDeviceInIdentifyMode
                  0x018238                  ZCL_Callback_CheckForAlarmCondition
                  0x0183be                  SE_UpdateAlarmTable
                  0x0185a8                  SE_CreateGetAlarmResponse
                  0x01867a                  App_Reset
                  0x018686                  App_ResetAttributeData
                  0x0186ae                  ZCL_Callback_AddEntryIntoReportingTable
                  0x01893e                  SE_CheckToSendReportAttributeCommand
                  0x0189c2                  SE_SendReportAttributeCommand
                  0x018b4e                  SE_UpdateReportReceived
                  0x018bf4                  SE_GetAttributeIndex
                  0x018c6c                  ZCL_Callback_ValidateAndCreateReadReportRsp
                  0x018dd4                  App_WriteSingleAttribute
                  0x018e40                  App_ResetVariables
                  0x018e50                  App_SendData
                  0x018edc                  App_SetCurrentTime
                  0x018f64                  ZCL_Callback_GetCurrentTimeInSeconds
                  0x018fc6                  App_TimeInit
                  0x018fe2                  App_InitAttributeStorage
                  0x019042                  ZCL_Callback_GetAttributeValue
                  0x019060                  ZCL_Callback_PutAttributeValue
                  0x01907a                  ZCL_Callback_GetClusterIndex
                  0x0190a6                  App_HandleReceivedData
                  0x01951e                  SE_ValidateSAS
                  0x019604                  SE_HandleIdentifyTimeout
                  0x01962e                  SE_SendCommissioningClusterResponse
                  0x019652                  App_ValidateProfileId
                  0x019680                  App_StartDevice
                  0x01983c                  Time_Synchronization
                  0x019860                  SE_SendNLMELeaveRequest
                  0x019982                  DisplayForMeterFormattingAttributes
                  0x019b30                  GetDisplayStateForMeterAttributes
                  0x019b52                  ZCL_Callback_Put_IdentifyTime
                  0x019b56                  ZCL_Callback_Get_IdentifyTime
                  0x019b5a                  App_SendDataOverInterPAN
                  0x019bc8                  Handle_Fragmented_MessageCluster
                  0x019c1c                  App_CheckIfReportReceived
                  0x019c4c                  App_ResetReportAttributeReceived
                  0x019c7a                  DisplayGroupsClusterCommands
                  0x019ce8                  DisplayScenesClusterCommands
                  0x019d1a                  ZCL_Callback_HandleGroupCmds
                  0x019fc8                  App_AddGroup
                  0x01a01a                  App_ReadWriteSingleAttribute
                  0x01a076                  ZCL_Callback_HandleSceneCmds
                  0x01a49c                  VerifySceneTableEntry
                  0x01a4ce                  Get_EmptySceneTableEntry
                  0x01a4f6                  GetClusterDefinition
                  0x01a55c                  Init_ScenesTable
                  0x01a592                  Get_SceneTableEntry
                  0x01a5bc                  Update_AndGetSceneCount
                  0x01a60a                  Handle_StoreAndRecallSceneCmd
                  0x01a86c                  Scenes_UpdateSceneValidFields
                  0x01a8c6                  App_DeleteScenesTableEntry
                  0x01a924                  Update_sceneExtnWithCurrentAttrb
                  0x01aa52                  Update_LastConfiguredByAttr
 .text            0x01aa5e       0x1da8 Objects\PIC24_256\Menu_MTR.o
                  0x01aa5e                  Display_Message
                  0x01aa8c                  Display_GetProfileResponse
                  0x01aac2                  Display_PublishPrice_MTR
                  0x01abba                  ProcessMenu_MTR
                  0x01af18                  ProcessButtonPress
                  0x01af48                  HandleESPDefault_MTR
                  0x01c7c8                  PrintMenu_MTR
 .text            0x01c806       0x1950 Objects\PIC24_256\zMAC_MRF24J40.o
                  0x01c806                  MACHasBackgroundTasks
                  0x01c810                  MACGet
                  0x01c820                  MACDiscardRx
                  0x01c82c                  MACDisable
                  0x01c83c                  MACEnable
                  0x01c898                  MACInit
                  0x01c8d0                  MACTasks
                  0x01e12a                  MLME_SET_macPANId_hw
                  0x01e140                  MLME_SET_macShortAddress_hw
 .text            0x01e156       0x10d8 E:\Dropbox\MyWork\SEPV1.1\Source\CMRI\SEP Progressive merge MTR Merge\Source\Common\Lib\ZCL24bitLib.a(ZCL_Foundation.o)
                  0x01e576                  ZCL_GetDataLengthForAttributeDataType
                  0x01e5e0                  ZCL_ProcessReceivedFrame
                  0x01e798                  ZCL_CreateDefaultResponseCommand
                  0x01e81a                  ZCL_ValidateIncomingFrame
                  0x01e8e2                  ZCL_CreateHeader
                  0x01e98a                  ZCL_CreateReadAttributeRespCmd
                  0x01ebda                  ZCL_CreateWriteAttributeRespCmd
                  0x01ec5e                  ZCL_CreateConfigureReportingResponseCommand
                  0x01ef0c                  ZCL_CreateReadReportingConfigurationResponseCommand
                  0x01efac                  ZCL_CreateDiscoverAttributesResponseCommand
                  0x01f1be                  GetAttributeDetails
 .text            0x01f22e        0xf78 Objects\PIC24_256\SE_ESP.o
                  0x01f468                  App_SendPublishPriceCommandOnInterPANNetwork
                  0x01f522                  SE_HandleEvents_ESP
                  0x01f94e                  App_HandlePendingData_ESP
                  0x01fd30                  App_UpdateDataConfTable_ESP
                  0x01fd36                  APP_HandleInterPANDataConfirm_ESP
                  0x01fd40                  putPhysicalEnvironment
                  0x01fd76                  setDRLCTable
                  0x01fd8c                  APP_HandleInterPANDataIndication_ESP
                  0x01ffa8                  App_UpdatePriceEvents_ESP
                  0x020140                  App_PriceInit
                  0x02018c                  App_MessageTableInit
 .text            0x0201a6        0xd2c Objects\PIC24_256\msdlclusterhanddle.o
                  0x0201a6                  initMSDCLTimers
                  0x0201c4                  TimeOutTime
                  0x0201fa                  HanddleMSDLClusterParameters
                  0x020256                  HanddleUART2Request
                  0x02035a                  CompareNWKTable
                  0x0203cc                  HanddleUART2
                  0x020506                  CheckDataAndSend
                  0x020a62                  SendExtPANIdResponse
                  0x020b08                  SendModuleStartData
                  0x020b2a                  SendModuleNetworkSetCommandResponse
                  0x020b58                  SendAddMeterCommandResponce
                  0x020bb0                  FindNumberofAddedMetersResponce
                  0x020c22                  FindMyChannel
                  0x020c6c                  CheckDeviceJoiningPermission
                  0x020d58                  EndDeviceLookupNodeByLongAddr
                  0x020dde                  AddEndDeviceAnnceDevice
                  0x020e68                  AddNWKAddrReq
 .text            0x020ed2        0xc6a Objects\PIC24_256\SE_MTR.o
                  0x020ed2                  SE_HandleEvents_MTR
                  0x021302                  App_HandlePendingData_MTR
                  0x021598                  App_UpdateDataConfTable_MTR
                  0x02159a                  APP_HandleInterPANDataConfirm_MTR
                  0x0215a0                  APP_HandleInterPANDataIndication_MTR
                  0x021908                  App_UpdatePriceEvents_MTR
                  0x021aa0                  App_Message_Tick
                  0x021ad0                  App_PriceInit_MTR
                  0x021b1c                  App_Meter_ProfileIntervalTableInit
 .text            0x021b3c        0xa6e Objects\PIC24_256\zSecurity_MRF24J40.o
                  0x021b3c                  ApplyHMACAlgorithm
                  0x021bb6                  ApplyMatyasMeyerOseasHashfunction
                  0x021caa                  SetSecurityKey
                  0x021d14                  InitSecurityKey
                  0x021d90                  EncKeySchedule
                  0x021e1e                  EncodeShiftRow
                  0x021e58                  AESEncode
                  0x021f40                  SetAi
                  0x021f70                  Authenticate
                  0x022030                  Encode
                  0x022086                  SoftwareCCM_Decrypt
                  0x0220f4                  SoftwareCCM_Encrypt
                  0x02211e                  GetActiveNetworkKey
                  0x02217c                  DataEncrypt
                  0x02227c                  DataDecrypt
                  0x0224f8                  KeyDerivationFunction
 .text            0x0225aa        0x96a Objects\PIC24_256\SE_Display.o
                  0x02282c                  HandleESPDisplay
                  0x022ac2                  HandleMeterDisplay
                  0x022e30                  Display_Time
                  0x022ee8                  display_Byte

.dinit            0x022f14        0x6be
 .dinit           0x022f14        0x6be data_init

.text             0x0235d2       0x4058
 .text            0x0235d2        0x5f0 Objects\PIC24_256\App_ESP.o
                  0x0235d2                  main_ESP
                  0x0236a8                  HandleChkConnections
                  0x0236b4                  AppInit
                  0x0236c6                  AppTasks
                  0x023952                  HandleFragmentDataConfirm
                  0x023960                  GetFragmentDataBuffer
                  0x023964                  AppNotification
                  0x023966                  SendZDPRequest
                  0x0239f6                  SendAPPLRequest
                  0x023ab6                  SetAppLinkKey
                  0x023b36                  RemoveAppLinkKey
                  0x023b8a                  SelectLinkKey
                  0x023ba2                  App_UpdateParamsForTestTool
                  0x023ba6                  App_HandleDataIndication
                  0x023ba8                  App_Set_SystemTime
 .text            0x023bc2        0x58a Objects\PIC24_256\App_MTR.o
                  0x023bc2                  main_MTR
                  0x023c86                  AppInit_MTR
                  0x023c98                  AppTasks_MTR
                  0x024030                  AppJoinRequest
                  0x02408c                  HandleFragmentDataIndication
                  0x0240ca                  ZCL_Callback_HandleTimeAttributes
 .text            0x02414c        0x522 Objects\PIC24_256\zPHY_MRF24J40.o
                  0x02414c                  PHYGet
                  0x02415c                  PHYHasBackgroundTasks
                  0x024162                  PHYInit
                  0x02427e                  PHYTasks
                  0x024344                  PHYSetLongRAMAddr
                  0x02438c                  PHYSetShortRAMAddr
                  0x0243dc                  PHYGetShortRAMAddr
                  0x02441a                  PHYGetLongRAMAddr
                  0x024466                  PHYSetOutputPower
                  0x02446e                  _INT1Interrupt
 .text            0x02466e        0x438 Objects\PIC24_256\zNVM.o
                  0x02466e                  NVMInit
                  0x02490c                  NVMRead
                  0x02494a                  ComparePage
                  0x02497e                  NVMWrite
                  0x024a28                  ClearNVM
                  0x024a72                  NVMalloc
                  0x024a88                  MemReverseCopy
 .text            0x024aa6        0x3b6 Objects\PIC24_256\merge_main.o
                  0x024aa6                  main
 .text            0x024e5c        0x394 Objects\PIC24_256\Console.o
                  0x024e5c                  ConsoleInit
                  0x024e6e                  ConsolePutROMString
                  0x024e88                  ConsolePut
                  0x024e96                  PrintChar
                  0x024eac                  ConsoleGet
                  0x024eba                  xatoi
                  0x024f9a                  xputc
                  0x024fae                  xputs
                  0x024fc4                  xitoa
                  0x025082                  xprintf
                  0x025150                  put_dump
                  0x0251b8                  GetHexByte
                  0x0251d2                  ConsolePutString
 .text            0x0251f0        0x31a Objects\PIC24_256\zAIL.o
                  0x0251f0                  AILInit
                  0x025204                  AILTasks
                  0x025420                  AILEnqueue
                  0x0254c0                  AILDequeue
 .text            0x02550a        0x2f0 Objects\PIC24_256\monitor.o
                  0x02550a                  x2atoi
                  0x0255ea                  x2putc
                  0x0255f0                  x2puts
                  0x025606                  x2itoa
                  0x0256c4                  x2printf
                  0x025792                  put2_dump
 .text            0x0257fa        0x2ec E:\Dropbox\MyWork\SEPV1.1\Source\CMRI\SEP Progressive merge MTR Merge\Source\Common\Lib\ZCL24bitLib.a(ZCL_Utility.o)
                  0x0257fa                  ZCL_Utility_Time_ConvertYearToSeconds
                  0x0258fe                  ZCL_Utility_Time_ConvertSecondsToYear
                  0x025a40                  ZCL_Utility_GetMaxPayloadLength
                  0x025a74                  ZCL_Utility_Is_Client_Time_Cluster_Supported
 .text            0x025ae6        0x294 Objects\PIC24_256\App_Common.o
                  0x025ae6                  GetMACByte
                  0x025b44                  GetMACByteDec
                  0x025ba2                  HandleUARTRequests
                  0x025c20                  AppSendData
                  0x025cb4                  AppSendGroupData
                  0x025cf2                  App_FindDestEndpointFromBindings
 .text            0x025d7a        0x294 E:\Dropbox\MyWork\SEPV1.1\Source\CMRI\SEP Progressive merge MTR Merge\Source\Common\Lib\TLS2130.a(lcd.o)
                  0x025d7a                  Init_LCD
                  0x025dfc                  lcdInit
                  0x025e7e                  lcd_cmd
                  0x025ea0                  lcd_data
                  0x025eca                  lcdPutChar
                  0x025ef4                  puts_lcd
                  0x025f12                  lcdPutStr
                  0x025f28                  lcdPutCur
                  0x025f32                  lcdClear
                  0x025f38                  lcdPutUInt
                  0x025ff4                  lcdPutSCmd
                  0x026000                  lcdDelay
 .text            0x02600e        0x280 Objects\PIC24_256\ZigbeeTasks.o
                  0x02600e                  ZigBeeInit
                  0x026050                  ZigBeeTasks
 .text            0x02628e        0x240 Objects\PIC24_256\rtcc.o
                  0x02628e                  RTCCProcessEvents
                  0x0262c2                  RTCCInit
                  0x026308                  RTCCSet
                  0x02633e                  RTCCUnlock
                  0x026350                  RTCCSetBinSec
                  0x02637a                  RTCCSetBinMin
                  0x0263a4                  RTCCSetBinHour
                  0x0263ca                  RTCCCalculateWeekDay
                  0x02641c                  RTCCSetBinDay
                  0x02646e                  RTCCSetBinMonth
                  0x026494                  RTCCSetBinYear
 .text            0x0264ce        0x20e Objects\PIC24_256\zStub_APS.o
                  0x0264ce                  StubAPSHasBackgroundTasks
                  0x0264d2                  StubAPSInit
                  0x0264d4                  StubAPSTasks
                  0x026636                  handleInterPanDataInd
                  0x0266b4                  handleInterPanDataConf
 .text            0x0266dc        0x1a6 E:\Dropbox\MyWork\SEPV1.1\Source\CMRI\SEP Progressive merge MTR Merge\Source\Common\Lib\ZCL24bitLib.a(ZCL_DRLC.o)
                  0x0266dc                  ZCL_HandleDRLCClusterCommand
                  0x0267fa                  ZCL_CreateReportEventStatusCommand
                  0x02684e                  ZCL_DRLC_CreateLoadControlEventCmd
 .text            0x026882        0x170 E:\Dropbox\MyWork\SEPV1.1\Source\CMRI\SEP Progressive merge MTR Merge\Source\Common\Lib\ZCL24bitLib.a(ZCL_Alarm.o)
                  0x026882                  ZCL_HandleAlarmClusterCommand
 .text            0x0269f2        0x160 E:\Dropbox\MyWork\SEPV1.1\Source\CMRI\SEP Progressive merge MTR Merge\Source\Common\Lib\ZCL24bitLib.a(ZCL_Metering.o)
                  0x0269f2                  ZCL_HandleMeteringClusterCommand
 .text            0x026b52        0x15a E:\Dropbox\MyWork\SEPV1.1\Source\CMRI\SEP Progressive merge MTR Merge\Source\Common\Lib\ZCL24bitLib.a(ZCL_Price.o)
                  0x026b52                  ZCL_HandlePriceClusterCommand
                  0x026c20                  ZCL_Price_CreatePublishPriceCmd
 .text            0x026cac        0x15a E:\Dropbox\MyWork\SEPV1.1\Source\CMRI\SEP Progressive merge MTR Merge\Source\Common\Lib\ZCL24bitLib.a(ZCL_Message.o)
                  0x026cac                  ZCL_HandleMessageClusterCommand
                  0x026d58                  ZCL_Message_CreateMessageConfirmation
                  0x026dae                  ZCL_CreateDisplayMessageCommand
 .text            0x026e06        0x122 E:\Dropbox\MyWork\SEPV1.1\Source\CMRI\SEP Progressive merge MTR Merge\Source\Common\Lib\ZCL24bitLib.a(ZCL_Scenes.o)
                  0x026e06                  ZCL_HandleScenesClusterCommand
 .text            0x026f28        0x11e Objects\PIC24_256\comm.o
                  0x026f28                  _U1RXInterrupt
                  0x026f7a                  _U1TXInterrupt
                  0x026fba                  uart_test
                  0x026fbe                  uart_get
                  0x026fe2                  uart_put
                  0x02700e                  uart_init
                  0x02703c                  uart_kbhit
 .text            0x027046        0x11c E:\Dropbox\MyWork\SEPV1.1\Source\CMRI\SEP Progressive merge MTR Merge\Source\Common\Lib\ZCL24bitLib.a(ZCL_Identify.o)
                  0x027046                  ZCL_HandleIdentifyClusterCommand
 .text            0x027162        0x110 E:\Dropbox\MyWork\SEPV1.1\Source\CMRI\SEP Progressive merge MTR Merge\Source\Common\Lib\ZCL24bitLib.a(ZCL_Groups.o)
                  0x027162                  ZCL_HandleGroupsClusterCommand
 .text            0x027272         0xe0 Objects\PIC24_256\HAL.o
                  0x027272                  HardwareInit
                  0x02731e                  _AddressError
 .text            0x027352         0xe0 E:\Dropbox\MyWork\SEPV1.1\Source\CMRI\SEP Progressive merge MTR Merge\Source\Common\Lib\ZCL24bitLib.a(ZCL_Time.o)
                  0x027352                  ZCL_Time_SetTimeAttribute
                  0x027374                  ZCL_CheckTimeAttribute
                  0x027418                  ZCL_HandleTimeClusterCommand
 .text            0x027432         0x8c E:\Dropbox\MyWork\SEPV1.1\Source\CMRI\SEP Progressive merge MTR Merge\Source\Common\Lib\ZCL24bitLib.a(ZCL_Commissioning.o)
                  0x027432                  ZCL_HandleCommissioningClusterCommand
 .text            0x0274be         0x62 E:\Dropbox\MyWork\SEPV1.1\Source\CMRI\SEP Progressive merge MTR Merge\Source\Common\Lib\ZCL24bitLib.a(ZCL_Basic.o)
                  0x0274be                  ZCL_HandleBasicClusterCommand
 .text            0x027520         0x36 Objects\PIC24_256\Delay.o
                  0x027520                  DelayMs
                  0x027542                  Delay10us
 .text            0x027556         0x34 Objects\PIC24_256\MSPI.o
                  0x027556                  RF_SPIPut
                  0x027566                  RF_SPIGet
                  0x027570                  EE_SPIPut
                  0x027580                  EE_SPIGet
 .text            0x02758a         0x32 Objects\PIC24_256\sralloc.o
                  0x02758a                  SRAMalloc
                  0x02759e                  CurrentMemoryUse
                  0x0275a4                  ResetMemoryCount
                  0x0275ac                  SRAMfree
                  0x0275b6                  SRAMInitHeap
 .text            0x0275bc         0x2c E:\Dropbox\MyWork\SEPV1.1\Source\CMRI\SEP Progressive merge MTR Merge\Source\Common\Lib\TLS2130.a(delay.o)
                  0x0275bc                  Delay
                  0x0275d2                  Delay_Us
 .text            0x0275e8         0x28 Objects\PIC24_256\SymbolTime.o
                  0x0275e8                  InitSymbolTimer
                  0x0275f0                  TickGetDiff
                  0x027608                  TickGet
 .text            0x027610         0x1a E:\Dropbox\MyWork\SEPV1.1\Source\CMRI\SEP Progressive merge MTR Merge\Source\Common\Lib\ZCL24bitLib.a(ZCL_Power_Configuration.o)
                  0x027610                  ZCL_HandlePowerConfigurationClusterCommand
